
basic_shit_app.elf:     file format elf32-littlenios2
basic_shit_app.elf
architecture: nios2, flags 0x00000112:
EXEC_P, HAS_SYMS, D_PAGED
start address 0x002801b4

Program Header:
    LOAD off    0x00001000 vaddr 0x00280000 paddr 0x00280000 align 2**12
         filesz 0x00000020 memsz 0x00000020 flags r-x
    LOAD off    0x00001020 vaddr 0x00280020 paddr 0x00280020 align 2**12
         filesz 0x000041f0 memsz 0x000041f0 flags r-x
    LOAD off    0x00005210 vaddr 0x00284210 paddr 0x002859c0 align 2**12
         filesz 0x000017b0 memsz 0x000017b0 flags rw-
    LOAD off    0x00007170 vaddr 0x00287170 paddr 0x00287170 align 2**12
         filesz 0x00000000 memsz 0x000002ac flags rw-

Sections:
Idx Name          Size      VMA       LMA       File off  Algn
  0 .entry        00000020  00280000  00280000  00001000  2**5
                  CONTENTS, ALLOC, LOAD, READONLY, CODE
  1 .exceptions   00000194  00280020  00280020  00001020  2**2
                  CONTENTS, ALLOC, LOAD, READONLY, CODE
  2 .text         00003d78  002801b4  002801b4  000011b4  2**2
                  CONTENTS, ALLOC, LOAD, READONLY, CODE
  3 .rodata       000002e4  00283f2c  00283f2c  00004f2c  2**2
                  CONTENTS, ALLOC, LOAD, READONLY, DATA
  4 .rwdata       000017b0  00284210  002859c0  00005210  2**2
                  CONTENTS, ALLOC, LOAD, DATA, SMALL_DATA
  5 .bss          000002ac  00287170  00287170  00007170  2**2
                  ALLOC, SMALL_DATA
  6 .comment      00000023  00000000  00000000  000069c0  2**0
                  CONTENTS, READONLY
  7 .debug_aranges 000005f8  00000000  00000000  000069e8  2**3
                  CONTENTS, READONLY, DEBUGGING
  8 .debug_pubnames 0000095c  00000000  00000000  00006fe0  2**0
                  CONTENTS, READONLY, DEBUGGING
  9 .debug_info   0000b79a  00000000  00000000  0000793c  2**0
                  CONTENTS, READONLY, DEBUGGING
 10 .debug_abbrev 00002a47  00000000  00000000  000130d6  2**0
                  CONTENTS, READONLY, DEBUGGING
 11 .debug_line   0000770e  00000000  00000000  00015b1d  2**0
                  CONTENTS, READONLY, DEBUGGING
 12 .debug_frame  00000afc  00000000  00000000  0001d22c  2**2
                  CONTENTS, READONLY, DEBUGGING
 13 .debug_str    00000d43  00000000  00000000  0001dd28  2**0
                  CONTENTS, READONLY, DEBUGGING
 14 .debug_loc    000012bf  00000000  00000000  0001ea6b  2**0
                  CONTENTS, READONLY, DEBUGGING
 15 .debug_alt_sim_info 00000060  00000000  00000000  0001fd2c  2**2
                  CONTENTS, READONLY, DEBUGGING
 16 .debug_ranges 00000090  00000000  00000000  0001fd90  2**3
                  CONTENTS, READONLY, DEBUGGING
 17 .thread_model 00000003  00000000  00000000  00021baf  2**0
                  CONTENTS, READONLY
 18 .cpu          00000003  00000000  00000000  00021bb2  2**0
                  CONTENTS, READONLY
 19 .qsys         00000001  00000000  00000000  00021bb5  2**0
                  CONTENTS, READONLY
 20 .simulation_enabled 00000001  00000000  00000000  00021bb6  2**0
                  CONTENTS, READONLY
 21 .stderr_dev   00000009  00000000  00000000  00021bb7  2**0
                  CONTENTS, READONLY
 22 .stdin_dev    00000009  00000000  00000000  00021bc0  2**0
                  CONTENTS, READONLY
 23 .stdout_dev   00000005  00000000  00000000  00021bc9  2**0
                  CONTENTS, READONLY
 24 .sopc_system_name 0000000a  00000000  00000000  00021bce  2**0
                  CONTENTS, READONLY
 25 .jdi          00002daa  00000000  00000000  00021bd8  2**0
                  CONTENTS, READONLY
SYMBOL TABLE:
00280000 l    d  .entry	00000000 .entry
00280020 l    d  .exceptions	00000000 .exceptions
002801b4 l    d  .text	00000000 .text
00283f2c l    d  .rodata	00000000 .rodata
00284210 l    d  .rwdata	00000000 .rwdata
00287170 l    d  .bss	00000000 .bss
00000000 l    d  .comment	00000000 .comment
00000000 l    d  .debug_aranges	00000000 .debug_aranges
00000000 l    d  .debug_pubnames	00000000 .debug_pubnames
00000000 l    d  .debug_info	00000000 .debug_info
00000000 l    d  .debug_abbrev	00000000 .debug_abbrev
00000000 l    d  .debug_line	00000000 .debug_line
00000000 l    d  .debug_frame	00000000 .debug_frame
00000000 l    d  .debug_str	00000000 .debug_str
00000000 l    d  .debug_loc	00000000 .debug_loc
00000000 l    d  .debug_alt_sim_info	00000000 .debug_alt_sim_info
00000000 l    d  .debug_ranges	00000000 .debug_ranges
002801fc l       .text	00000000 alt_after_alt_main
00000000 l    df *ABS*	00000000 alt_irq_handler.c
00000000 l    df *ABS*	00000000 main.c
00000000 l    df *ABS*	00000000 alt_load.c
00280810 l     F .text	0000006c alt_load_section
00000000 l    df *ABS*	00000000 alt_main.c
00000000 l    df *ABS*	00000000 alt_usleep.c
00000000 l    df *ABS*	00000000 alt_sys_init.c
00284210 l     O .rwdata	00001060 jtag_uart
00285270 l     O .rwdata	00000120 lcd_0
00285390 l     O .rwdata	00000054 pixel_buffer_dma
00280ba0 l     F .text	00000038 alt_dev_reg
00000000 l    df *ABS*	00000000 altera_avalon_jtag_uart_fd.c
00000000 l    df *ABS*	00000000 altera_avalon_jtag_uart_init.c
00280de0 l     F .text	00000228 altera_avalon_jtag_uart_irq
00281008 l     F .text	000000b0 altera_avalon_jtag_uart_timeout
00000000 l    df *ABS*	00000000 altera_avalon_jtag_uart_ioctl.c
00000000 l    df *ABS*	00000000 altera_avalon_jtag_uart_read.c
00000000 l    df *ABS*	00000000 altera_avalon_jtag_uart_write.c
00000000 l    df *ABS*	00000000 altera_avalon_lcd_16207.c
0028598c l     O .rwdata	00000004 colstart
00281684 l     F .text	000000b8 lcd_write_command
0028173c l     F .text	000000d4 lcd_write_data
00281810 l     F .text	000000c4 lcd_clear_screen
002818d4 l     F .text	000001ec lcd_repaint_screen
00281ac0 l     F .text	000000c8 lcd_scroll_up
00281b88 l     F .text	000002d0 lcd_handle_escape
00282364 l     F .text	000000cc alt_lcd_16207_timeout
00000000 l    df *ABS*	00000000 altera_avalon_lcd_16207_fd.c
00000000 l    df *ABS*	00000000 alt_alarm_start.c
00000000 l    df *ABS*	00000000 alt_busy_sleep.c
00000000 l    df *ABS*	00000000 alt_close.c
00282960 l     F .text	00000060 alt_get_errno
00000000 l    df *ABS*	00000000 alt_dcache_flush_all.c
00000000 l    df *ABS*	00000000 alt_dev.c
00282a04 l     F .text	0000002c alt_dev_null_write
00000000 l    df *ABS*	00000000 alt_dev_llist_insert.c
00282ae4 l     F .text	00000060 alt_get_errno
00000000 l    df *ABS*	00000000 alt_do_ctors.c
00000000 l    df *ABS*	00000000 alt_do_dtors.c
00000000 l    df *ABS*	00000000 alt_errno.c
00000000 l    df *ABS*	00000000 alt_icache_flush_all.c
00000000 l    df *ABS*	00000000 alt_iic.c
00000000 l    df *ABS*	00000000 alt_iic_isr_register.c
00000000 l    df *ABS*	00000000 alt_io_redirect.c
00282f08 l     F .text	000000c4 alt_open_fd
00000000 l    df *ABS*	00000000 alt_irq_vars.c
00000000 l    df *ABS*	00000000 alt_open.c
00283044 l     F .text	000000dc alt_file_locked
002832a8 l     F .text	00000060 alt_get_errno
00000000 l    df *ABS*	00000000 alt_release_fd.c
00000000 l    df *ABS*	00000000 alt_tick.c
00000000 l    df *ABS*	00000000 altera_nios2_qsys_irq.c
00000000 l    df *ABS*	00000000 alt_find_dev.c
00000000 l    df *ABS*	00000000 alt_find_file.c
00000000 l    df *ABS*	00000000 alt_get_fd.c
00000000 l    df *ABS*	00000000 alt_icache_flush.c
00000000 l    df *ABS*	00000000 atexit.c
00000000 l    df *ABS*	00000000 ctype_.c
00284089 l     O .rodata	00000180 _ctype_b
00000000 l    df *ABS*	00000000 exit.c
00000000 l    df *ABS*	00000000 impure.c
0028558c l     O .rwdata	00000400 impure_data
00000000 l    df *ABS*	00000000 int_errno.c
00000000 l    df *ABS*	00000000 memcmp.c
00000000 l    df *ABS*	00000000 memcpy.c
00000000 l    df *ABS*	00000000 memset.c
00000000 l    df *ABS*	00000000 strlen.c
00000000 l    df *ABS*	00000000 __atexit.c
00000000 l    df *ABS*	00000000 __call_atexit.c
00283bc8 l     F .text	00000004 register_fini
00000000 l    df *ABS*	00000000 lib2-divmod.c
00283d7c l     F .text	0000007c udivmodsi4
00000000 l    df *ABS*	00000000 alt_exit.c
00283ec8 l     F .text	00000040 alt_sim_halt
0028087c g     F .text	0000006c alt_main
0028718c g     O .bss	00000100 alt_irq
002859c0 g       *ABS*	00000000 __flash_rwdata_start
00280290 g     F .text	00000074 draw_line
00000000  w      *UND*	00000000 __errno
00280000 g     F .entry	0000001c __reset
00280020 g       *ABS*	00000000 __flash_exceptions_start
00287188 g     O .bss	00000004 errno
00287174 g     O .bss	00000004 alt_argv
0028d98c g       *ABS*	00000000 _gp
002808e8 g     F .text	00000030 usleep
0028540c g     O .rwdata	00000180 alt_fd_list
0028352c g     F .text	00000094 alt_find_dev
002838e8 g     F .text	000000a0 memcpy
00282fcc g     F .text	00000078 alt_io_redirect
00283f2c g       *ABS*	00000000 __DTOR_END__
00281220 g     F .text	00000224 altera_avalon_jtag_uart_read
00000000  w      *UND*	00000000 malloc
00283eb8 g     F .text	00000008 __udivsi3
00283798 g     F .text	00000090 alt_icache_flush
002859a0 g     O .rwdata	00000004 alt_max_fd
002859bc g     O .rwdata	00000004 _global_impure_ptr
0028741c g       *ABS*	00000000 __bss_end
00282e10 g     F .text	000000f8 alt_iic_isr_register
00283400 g     F .text	0000010c alt_tick
002859b4 g     O .rwdata	00000004 __ctype_ptr
00282dc8 g     F .text	00000048 alt_ic_irq_enabled
00283368 g     F .text	00000098 alt_alarm_stop
0028717c g     O .bss	00000004 alt_irq_active
002800ec g     F .exceptions	000000c8 alt_irq_handler
002853e4 g     O .rwdata	00000028 alt_dev_null
002829c0 g     F .text	00000044 alt_dcache_flush_all
002859c0 g       *ABS*	00000000 __ram_rwdata_end
00285998 g     O .rwdata	00000008 alt_dev_list
00284210 g       *ABS*	00000000 __ram_rodata_end
00283ec0 g     F .text	00000008 __umodsi3
0028741c g       *ABS*	00000000 end
00281e58 g     F .text	0000050c altera_avalon_lcd_16207_write
00280d20 g     F .text	000000c0 altera_avalon_jtag_uart_init
00283f28 g       *ABS*	00000000 __CTOR_LIST__
002cbaf0 g       *ABS*	00000000 __alt_stack_pointer
00281444 g     F .text	00000240 altera_avalon_jtag_uart_write
00283bcc g     F .text	000001b0 __call_exitprocs
002801b4 g     F .text	0000004c _start
00287180 g     O .bss	00000004 _alt_tick_rate
00287184 g     O .bss	00000004 _alt_nticks
0028094c g     F .text	00000254 alt_sys_init
00283a94 g     F .text	00000134 __register_exitproc
002810b8 g     F .text	00000074 altera_avalon_jtag_uart_close
00284210 g       *ABS*	00000000 __ram_rwdata_start
00283f2c g       *ABS*	00000000 __ram_rodata_start
00280bd8 g     F .text	00000058 altera_avalon_jtag_uart_read_fd
002836e0 g     F .text	000000b8 alt_get_fd
00282718 g     F .text	0000014c alt_busy_sleep
00283874 g     F .text	00000074 memcmp
00280c88 g     F .text	00000048 altera_avalon_jtag_uart_close_fd
0028741c g       *ABS*	00000000 __alt_stack_base
00280cd0 g     F .text	00000050 altera_avalon_jtag_uart_ioctl_fd
00280668 g     F .text	00000128 draw_box
002835c0 g     F .text	00000120 alt_find_file
00282a30 g     F .text	000000b4 alt_dev_llist_insert
00287170 g       *ABS*	00000000 __bss_start
00283988 g     F .text	00000098 memset
00280200 g     F .text	00000090 main
00287178 g     O .bss	00000004 alt_envp
00280c30 g     F .text	00000058 altera_avalon_jtag_uart_write_fd
00282430 g     F .text	0000013c altera_avalon_lcd_16207_init
0028728c g     O .bss	00000190 _atexit0
002859a4 g     O .rwdata	00000004 alt_errno
00283df8 g     F .text	00000060 __divsi3
00283f2c g       *ABS*	00000000 __CTOR_END__
00283f2c g       *ABS*	00000000 __flash_rodata_start
00283f2c g       *ABS*	00000000 __DTOR_LIST__
00280918 g     F .text	00000034 alt_irq_init
00283308 g     F .text	00000060 alt_release_fd
00283828 g     F .text	00000014 atexit
002859b8 g     O .rwdata	00000004 _impure_ptr
00287170 g     O .bss	00000004 alt_argc
00282ba8 g     F .text	00000064 _do_dtors
00280020 g       .exceptions	00000000 alt_irq_entry
0028256c g     F .text	00000058 altera_avalon_lcd_16207_write_fd
00285990 g     O .rwdata	00000008 alt_fs_list
00280020 g       *ABS*	00000000 __ram_exceptions_start
00280304 g     F .text	00000328 line_fast
00282c3c g     F .text	00000050 alt_ic_isr_register
002859c0 g       *ABS*	00000000 _edata
0028741c g       *ABS*	00000000 _end
002801b4 g       *ABS*	00000000 __ram_exceptions_end
0028112c g     F .text	000000f4 altera_avalon_jtag_uart_ioctl
00282d28 g     F .text	000000a0 alt_ic_irq_disable
00280000 g       *ABS*	00000000 __alt_mem_memory
0028350c g     F .text	00000020 altera_nios2_qsys_irq_init
0028383c g     F .text	00000038 exit
00283e58 g     F .text	00000060 __modsi3
002cbaf0 g       *ABS*	00000000 __alt_data_end
00280020 g     F .exceptions	00000000 alt_exception
00283f88 g     O .rodata	00000101 _ctype_
00283f08 g     F .text	00000020 _exit
002825c4 g     F .text	00000154 alt_alarm_start
00283a20 g     F .text	00000074 strlen
00283120 g     F .text	00000188 open
00282c0c g     F .text	00000030 alt_icache_flush_all
002859a8 g     O .rwdata	00000004 alt_priority_mask
00282c8c g     F .text	0000009c alt_ic_irq_enable
0028062c g     F .text	0000003c clear_screen
002859ac g     O .rwdata	00000008 alt_alarm_list
00282b44 g     F .text	00000064 _do_ctors
00282864 g     F .text	000000fc close
00280790 g     F .text	00000080 alt_load
00000000  w      *UND*	00000000 free



Disassembly of section .entry:

00280000 <__reset>:
  280000:	00840014 	movui	r2,4096
  280004:	1001483a 	initi	r2
  280008:	10bff804 	addi	r2,r2,-32
  28000c:	00bffd16 	blt	zero,r2,280004 <__reset+0x4>
  280010:	00400a34 	movhi	at,40
  280014:	08406d14 	ori	at,at,436
  280018:	0800683a 	jmp	at
  28001c:	00000000 	call	0 <__reset-0x280000>

Disassembly of section .exceptions:

00280020 <alt_exception>:
  280020:	deffed04 	addi	sp,sp,-76
  280024:	dfc00015 	stw	ra,0(sp)
  280028:	d8400215 	stw	at,8(sp)
  28002c:	d8800315 	stw	r2,12(sp)
  280030:	d8c00415 	stw	r3,16(sp)
  280034:	d9000515 	stw	r4,20(sp)
  280038:	d9400615 	stw	r5,24(sp)
  28003c:	d9800715 	stw	r6,28(sp)
  280040:	d9c00815 	stw	r7,32(sp)
  280044:	000b307a 	rdctl	r5,estatus
  280048:	da000915 	stw	r8,36(sp)
  28004c:	da400a15 	stw	r9,40(sp)
  280050:	da800b15 	stw	r10,44(sp)
  280054:	dac00c15 	stw	r11,48(sp)
  280058:	db000d15 	stw	r12,52(sp)
  28005c:	db400e15 	stw	r13,56(sp)
  280060:	db800f15 	stw	r14,60(sp)
  280064:	dbc01015 	stw	r15,64(sp)
  280068:	d9401115 	stw	r5,68(sp)
  28006c:	ebffff04 	addi	r15,ea,-4
  280070:	dbc01215 	stw	r15,72(sp)
  280074:	0009313a 	rdctl	r4,ipending
  280078:	2880004c 	andi	r2,r5,1
  28007c:	10000326 	beq	r2,zero,28008c <alt_exception+0x6c>
  280080:	20000226 	beq	r4,zero,28008c <alt_exception+0x6c>
  280084:	02800ec0 	call	2800ec <alt_irq_handler>
  280088:	00000306 	br	280098 <alt_exception+0x78>
  28008c:	df401215 	stw	ea,72(sp)
  280090:	e8bfff17 	ldw	r2,-4(ea)
  280094:	003da03a 	break	0
  280098:	d9401117 	ldw	r5,68(sp)
  28009c:	df401217 	ldw	ea,72(sp)
  2800a0:	dfc00017 	ldw	ra,0(sp)
  2800a4:	2801707a 	wrctl	estatus,r5
  2800a8:	d8400217 	ldw	at,8(sp)
  2800ac:	d8800317 	ldw	r2,12(sp)
  2800b0:	d8c00417 	ldw	r3,16(sp)
  2800b4:	d9000517 	ldw	r4,20(sp)
  2800b8:	d9400617 	ldw	r5,24(sp)
  2800bc:	d9800717 	ldw	r6,28(sp)
  2800c0:	d9c00817 	ldw	r7,32(sp)
  2800c4:	da000917 	ldw	r8,36(sp)
  2800c8:	da400a17 	ldw	r9,40(sp)
  2800cc:	da800b17 	ldw	r10,44(sp)
  2800d0:	dac00c17 	ldw	r11,48(sp)
  2800d4:	db000d17 	ldw	r12,52(sp)
  2800d8:	db400e17 	ldw	r13,56(sp)
  2800dc:	db800f17 	ldw	r14,60(sp)
  2800e0:	dbc01017 	ldw	r15,64(sp)
  2800e4:	dec01304 	addi	sp,sp,76
  2800e8:	ef80083a 	eret

002800ec <alt_irq_handler>:
  2800ec:	defff904 	addi	sp,sp,-28
  2800f0:	dfc00615 	stw	ra,24(sp)
  2800f4:	df000515 	stw	fp,20(sp)
  2800f8:	df000504 	addi	fp,sp,20
  2800fc:	0005313a 	rdctl	r2,ipending
  280100:	e0bffc15 	stw	r2,-16(fp)
  280104:	e0bffc17 	ldw	r2,-16(fp)
  280108:	e0bfff15 	stw	r2,-4(fp)
  28010c:	e03ffd15 	stw	zero,-12(fp)
  280110:	00800044 	movi	r2,1
  280114:	e0bffe15 	stw	r2,-8(fp)
  280118:	e0ffff17 	ldw	r3,-4(fp)
  28011c:	e0bffe17 	ldw	r2,-8(fp)
  280120:	1884703a 	and	r2,r3,r2
  280124:	1005003a 	cmpeq	r2,r2,zero
  280128:	1000161e 	bne	r2,zero,280184 <alt_irq_handler+0x98>
  28012c:	e0bffd17 	ldw	r2,-12(fp)
  280130:	00c00a34 	movhi	r3,40
  280134:	18dc6304 	addi	r3,r3,29068
  280138:	100490fa 	slli	r2,r2,3
  28013c:	10c5883a 	add	r2,r2,r3
  280140:	11400017 	ldw	r5,0(r2)
  280144:	e0bffd17 	ldw	r2,-12(fp)
  280148:	00c00a34 	movhi	r3,40
  28014c:	18dc6304 	addi	r3,r3,29068
  280150:	100490fa 	slli	r2,r2,3
  280154:	10c5883a 	add	r2,r2,r3
  280158:	10800104 	addi	r2,r2,4
  28015c:	11000017 	ldw	r4,0(r2)
  280160:	283ee83a 	callr	r5
  280164:	0005313a 	rdctl	r2,ipending
  280168:	e0bffb15 	stw	r2,-20(fp)
  28016c:	e0bffb17 	ldw	r2,-20(fp)
  280170:	e0bfff15 	stw	r2,-4(fp)
  280174:	e0bfff17 	ldw	r2,-4(fp)
  280178:	1004c03a 	cmpne	r2,r2,zero
  28017c:	103fe31e 	bne	r2,zero,28010c <alt_irq_handler+0x20>
  280180:	00000706 	br	2801a0 <alt_irq_handler+0xb4>
  280184:	e0bffe17 	ldw	r2,-8(fp)
  280188:	1085883a 	add	r2,r2,r2
  28018c:	e0bffe15 	stw	r2,-8(fp)
  280190:	e0bffd17 	ldw	r2,-12(fp)
  280194:	10800044 	addi	r2,r2,1
  280198:	e0bffd15 	stw	r2,-12(fp)
  28019c:	003fde06 	br	280118 <alt_irq_handler+0x2c>
  2801a0:	e037883a 	mov	sp,fp
  2801a4:	dfc00117 	ldw	ra,4(sp)
  2801a8:	df000017 	ldw	fp,0(sp)
  2801ac:	dec00204 	addi	sp,sp,8
  2801b0:	f800283a 	ret

Disassembly of section .text:

002801b4 <_start>:
  2801b4:	00820014 	movui	r2,2048
  2801b8:	10000033 	initd	0(r2)
  2801bc:	10bff804 	addi	r2,r2,-32
  2801c0:	00bffd16 	blt	zero,r2,2801b8 <_start+0x4>
  2801c4:	06c00b34 	movhi	sp,44
  2801c8:	deeebc14 	ori	sp,sp,47856
  2801cc:	06800a34 	movhi	gp,40
  2801d0:	d6b66314 	ori	gp,gp,55692
  2801d4:	00800a34 	movhi	r2,40
  2801d8:	109c5c14 	ori	r2,r2,29040
  2801dc:	00c00a34 	movhi	r3,40
  2801e0:	18dd0714 	ori	r3,r3,29724
  2801e4:	10c00326 	beq	r2,r3,2801f4 <_start+0x40>
  2801e8:	10000015 	stw	zero,0(r2)
  2801ec:	10800104 	addi	r2,r2,4
  2801f0:	10fffd36 	bltu	r2,r3,2801e8 <_start+0x34>
  2801f4:	02807900 	call	280790 <alt_load>
  2801f8:	028087c0 	call	28087c <alt_main>

002801fc <alt_after_alt_main>:
  2801fc:	003fff06 	br	2801fc <alt_after_alt_main>

00280200 <main>:
  280200:	defffd04 	addi	sp,sp,-12
  280204:	dfc00215 	stw	ra,8(sp)
  280208:	df000115 	stw	fp,4(sp)
  28020c:	df000104 	addi	fp,sp,4
  280210:	028062c0 	call	28062c <clear_screen>
  280214:	0100fa04 	movi	r4,1000
  280218:	02808e80 	call	2808e8 <usleep>
  28021c:	00bfffc4 	movi	r2,-1
  280220:	d8800015 	stw	r2,0(sp)
  280224:	01003204 	movi	r4,200
  280228:	01406404 	movi	r5,400
  28022c:	01806404 	movi	r6,400
  280230:	01c06404 	movi	r7,400
  280234:	02802900 	call	280290 <draw_line>
  280238:	00bfffc4 	movi	r2,-1
  28023c:	d8800015 	stw	r2,0(sp)
  280240:	0009883a 	mov	r4,zero
  280244:	01404b04 	movi	r5,300
  280248:	01803204 	movi	r6,200
  28024c:	01c06404 	movi	r7,400
  280250:	02802900 	call	280290 <draw_line>
  280254:	00bfffc4 	movi	r2,-1
  280258:	d8800015 	stw	r2,0(sp)
  28025c:	01006404 	movi	r4,400
  280260:	01406404 	movi	r5,400
  280264:	0180a004 	movi	r6,640
  280268:	01c03204 	movi	r7,200
  28026c:	02802900 	call	280290 <draw_line>
  280270:	0100fa04 	movi	r4,1000
  280274:	02808e80 	call	2808e8 <usleep>
  280278:	0005883a 	mov	r2,zero
  28027c:	e037883a 	mov	sp,fp
  280280:	dfc00117 	ldw	ra,4(sp)
  280284:	df000017 	ldw	fp,0(sp)
  280288:	dec00204 	addi	sp,sp,8
  28028c:	f800283a 	ret

00280290 <draw_line>:
  280290:	defff804 	addi	sp,sp,-32
  280294:	dfc00715 	stw	ra,28(sp)
  280298:	df000615 	stw	fp,24(sp)
  28029c:	df000604 	addi	fp,sp,24
  2802a0:	e13ffb15 	stw	r4,-20(fp)
  2802a4:	e17ffc15 	stw	r5,-16(fp)
  2802a8:	e1bffd15 	stw	r6,-12(fp)
  2802ac:	e1fffe15 	stw	r7,-8(fp)
  2802b0:	e0800217 	ldw	r2,8(fp)
  2802b4:	e0bfff0d 	sth	r2,-4(fp)
  2802b8:	e0bfff0f 	ldh	r2,-4(fp)
  2802bc:	d8800015 	stw	r2,0(sp)
  2802c0:	e13ffb17 	ldw	r4,-20(fp)
  2802c4:	e17ffc17 	ldw	r5,-16(fp)
  2802c8:	e1bffd17 	ldw	r6,-12(fp)
  2802cc:	e1fffe17 	ldw	r7,-8(fp)
  2802d0:	02803040 	call	280304 <line_fast>
  2802d4:	e0bfff0f 	ldh	r2,-4(fp)
  2802d8:	d8800015 	stw	r2,0(sp)
  2802dc:	e13ffb17 	ldw	r4,-20(fp)
  2802e0:	e17ffc17 	ldw	r5,-16(fp)
  2802e4:	e1bffd17 	ldw	r6,-12(fp)
  2802e8:	e1fffe17 	ldw	r7,-8(fp)
  2802ec:	02803040 	call	280304 <line_fast>
  2802f0:	e037883a 	mov	sp,fp
  2802f4:	dfc00117 	ldw	ra,4(sp)
  2802f8:	df000017 	ldw	fp,0(sp)
  2802fc:	dec00204 	addi	sp,sp,8
  280300:	f800283a 	ret

00280304 <line_fast>:
  280304:	deffec04 	addi	sp,sp,-80
  280308:	df001315 	stw	fp,76(sp)
  28030c:	df001304 	addi	fp,sp,76
  280310:	e13ff915 	stw	r4,-28(fp)
  280314:	e17ffa15 	stw	r5,-24(fp)
  280318:	e1bffb15 	stw	r6,-20(fp)
  28031c:	e1fffc15 	stw	r7,-16(fp)
  280320:	e0800117 	ldw	r2,4(fp)
  280324:	e0bffd0d 	sth	r2,-12(fp)
  280328:	e03fed15 	stw	zero,-76(fp)
  28032c:	e0fffb17 	ldw	r3,-20(fp)
  280330:	e0bff917 	ldw	r2,-28(fp)
  280334:	1885c83a 	sub	r2,r3,r2
  280338:	e0bff715 	stw	r2,-36(fp)
  28033c:	e0fffc17 	ldw	r3,-16(fp)
  280340:	e0bffa17 	ldw	r2,-24(fp)
  280344:	1885c83a 	sub	r2,r3,r2
  280348:	e0bff615 	stw	r2,-40(fp)
  28034c:	e0bff717 	ldw	r2,-36(fp)
  280350:	e0bff315 	stw	r2,-52(fp)
  280354:	e0bff317 	ldw	r2,-52(fp)
  280358:	1004403a 	cmpge	r2,r2,zero
  28035c:	1000031e 	bne	r2,zero,28036c <line_fast+0x68>
  280360:	e0bff317 	ldw	r2,-52(fp)
  280364:	0085c83a 	sub	r2,zero,r2
  280368:	e0bff315 	stw	r2,-52(fp)
  28036c:	e0bff617 	ldw	r2,-40(fp)
  280370:	e0bff215 	stw	r2,-56(fp)
  280374:	e0bff217 	ldw	r2,-56(fp)
  280378:	1004403a 	cmpge	r2,r2,zero
  28037c:	1000031e 	bne	r2,zero,28038c <line_fast+0x88>
  280380:	e0bff217 	ldw	r2,-56(fp)
  280384:	0085c83a 	sub	r2,zero,r2
  280388:	e0bff215 	stw	r2,-56(fp)
  28038c:	e0bff717 	ldw	r2,-36(fp)
  280390:	1004803a 	cmplt	r2,r2,zero
  280394:	1000041e 	bne	r2,zero,2803a8 <line_fast+0xa4>
  280398:	e0bff717 	ldw	r2,-36(fp)
  28039c:	10800048 	cmpgei	r2,r2,1
  2803a0:	e0bfff15 	stw	r2,-4(fp)
  2803a4:	00000206 	br	2803b0 <line_fast+0xac>
  2803a8:	00bfffc4 	movi	r2,-1
  2803ac:	e0bfff15 	stw	r2,-4(fp)
  2803b0:	e0bfff17 	ldw	r2,-4(fp)
  2803b4:	e0bff515 	stw	r2,-44(fp)
  2803b8:	e0bff617 	ldw	r2,-40(fp)
  2803bc:	1004803a 	cmplt	r2,r2,zero
  2803c0:	1000041e 	bne	r2,zero,2803d4 <line_fast+0xd0>
  2803c4:	e0bff617 	ldw	r2,-40(fp)
  2803c8:	10800048 	cmpgei	r2,r2,1
  2803cc:	e0bffe15 	stw	r2,-8(fp)
  2803d0:	00000206 	br	2803dc <line_fast+0xd8>
  2803d4:	00bfffc4 	movi	r2,-1
  2803d8:	e0bffe15 	stw	r2,-8(fp)
  2803dc:	e0bffe17 	ldw	r2,-8(fp)
  2803e0:	e0bff415 	stw	r2,-48(fp)
  2803e4:	e0bff217 	ldw	r2,-56(fp)
  2803e8:	1005d07a 	srai	r2,r2,1
  2803ec:	e0bff115 	stw	r2,-60(fp)
  2803f0:	e0bff317 	ldw	r2,-52(fp)
  2803f4:	1005d07a 	srai	r2,r2,1
  2803f8:	e0bff015 	stw	r2,-64(fp)
  2803fc:	e0bff917 	ldw	r2,-28(fp)
  280400:	e0bfef15 	stw	r2,-68(fp)
  280404:	e0bffa17 	ldw	r2,-24(fp)
  280408:	e0bfee15 	stw	r2,-72(fp)
  28040c:	e0bfee17 	ldw	r2,-72(fp)
  280410:	100692ba 	slli	r3,r2,10
  280414:	e0bfef17 	ldw	r2,-68(fp)
  280418:	1885883a 	add	r2,r3,r2
  28041c:	1085883a 	add	r2,r2,r2
  280420:	1007883a 	mov	r3,r2
  280424:	e0bfed17 	ldw	r2,-76(fp)
  280428:	1887883a 	add	r3,r3,r2
  28042c:	e0bffd0b 	ldhu	r2,-12(fp)
  280430:	1880000d 	sth	r2,0(r3)
  280434:	e0fff317 	ldw	r3,-52(fp)
  280438:	e0bff217 	ldw	r2,-56(fp)
  28043c:	18803c16 	blt	r3,r2,280530 <line_fast+0x22c>
  280440:	e03ff815 	stw	zero,-32(fp)
  280444:	00003606 	br	280520 <line_fast+0x21c>
  280448:	e0fff017 	ldw	r3,-64(fp)
  28044c:	e0bff217 	ldw	r2,-56(fp)
  280450:	1885883a 	add	r2,r3,r2
  280454:	e0bff015 	stw	r2,-64(fp)
  280458:	e0fff017 	ldw	r3,-64(fp)
  28045c:	e0bff317 	ldw	r2,-52(fp)
  280460:	18800816 	blt	r3,r2,280484 <line_fast+0x180>
  280464:	e0fff017 	ldw	r3,-64(fp)
  280468:	e0bff317 	ldw	r2,-52(fp)
  28046c:	1885c83a 	sub	r2,r3,r2
  280470:	e0bff015 	stw	r2,-64(fp)
  280474:	e0ffee17 	ldw	r3,-72(fp)
  280478:	e0bff417 	ldw	r2,-48(fp)
  28047c:	1885883a 	add	r2,r3,r2
  280480:	e0bfee15 	stw	r2,-72(fp)
  280484:	e0ffef17 	ldw	r3,-68(fp)
  280488:	e0bff517 	ldw	r2,-44(fp)
  28048c:	1885883a 	add	r2,r3,r2
  280490:	e0bfef15 	stw	r2,-68(fp)
  280494:	e0bfee17 	ldw	r2,-72(fp)
  280498:	100692ba 	slli	r3,r2,10
  28049c:	e0bfef17 	ldw	r2,-68(fp)
  2804a0:	1885883a 	add	r2,r3,r2
  2804a4:	1085883a 	add	r2,r2,r2
  2804a8:	1007883a 	mov	r3,r2
  2804ac:	e0bfed17 	ldw	r2,-76(fp)
  2804b0:	1887883a 	add	r3,r3,r2
  2804b4:	e0bffd0b 	ldhu	r2,-12(fp)
  2804b8:	1880000d 	sth	r2,0(r3)
  2804bc:	e0bfee17 	ldw	r2,-72(fp)
  2804c0:	10800044 	addi	r2,r2,1
  2804c4:	100692ba 	slli	r3,r2,10
  2804c8:	e0bfef17 	ldw	r2,-68(fp)
  2804cc:	1885883a 	add	r2,r3,r2
  2804d0:	1085883a 	add	r2,r2,r2
  2804d4:	1007883a 	mov	r3,r2
  2804d8:	e0bfed17 	ldw	r2,-76(fp)
  2804dc:	1887883a 	add	r3,r3,r2
  2804e0:	e0bffd0b 	ldhu	r2,-12(fp)
  2804e4:	1880000d 	sth	r2,0(r3)
  2804e8:	e0bfee17 	ldw	r2,-72(fp)
  2804ec:	10bfffc4 	addi	r2,r2,-1
  2804f0:	100692ba 	slli	r3,r2,10
  2804f4:	e0bfef17 	ldw	r2,-68(fp)
  2804f8:	1885883a 	add	r2,r3,r2
  2804fc:	1085883a 	add	r2,r2,r2
  280500:	1007883a 	mov	r3,r2
  280504:	e0bfed17 	ldw	r2,-76(fp)
  280508:	1887883a 	add	r3,r3,r2
  28050c:	e0bffd0b 	ldhu	r2,-12(fp)
  280510:	1880000d 	sth	r2,0(r3)
  280514:	e0bff817 	ldw	r2,-32(fp)
  280518:	10800044 	addi	r2,r2,1
  28051c:	e0bff815 	stw	r2,-32(fp)
  280520:	e0fff817 	ldw	r3,-32(fp)
  280524:	e0bff317 	ldw	r2,-52(fp)
  280528:	18bfc716 	blt	r3,r2,280448 <line_fast+0x144>
  28052c:	00003b06 	br	28061c <line_fast+0x318>
  280530:	e03ff815 	stw	zero,-32(fp)
  280534:	00003606 	br	280610 <line_fast+0x30c>
  280538:	e0fff117 	ldw	r3,-60(fp)
  28053c:	e0bff317 	ldw	r2,-52(fp)
  280540:	1885883a 	add	r2,r3,r2
  280544:	e0bff115 	stw	r2,-60(fp)
  280548:	e0fff117 	ldw	r3,-60(fp)
  28054c:	e0bff217 	ldw	r2,-56(fp)
  280550:	18800816 	blt	r3,r2,280574 <line_fast+0x270>
  280554:	e0fff117 	ldw	r3,-60(fp)
  280558:	e0bff217 	ldw	r2,-56(fp)
  28055c:	1885c83a 	sub	r2,r3,r2
  280560:	e0bff115 	stw	r2,-60(fp)
  280564:	e0ffef17 	ldw	r3,-68(fp)
  280568:	e0bff517 	ldw	r2,-44(fp)
  28056c:	1885883a 	add	r2,r3,r2
  280570:	e0bfef15 	stw	r2,-68(fp)
  280574:	e0ffee17 	ldw	r3,-72(fp)
  280578:	e0bff417 	ldw	r2,-48(fp)
  28057c:	1885883a 	add	r2,r3,r2
  280580:	e0bfee15 	stw	r2,-72(fp)
  280584:	e0bfee17 	ldw	r2,-72(fp)
  280588:	100692ba 	slli	r3,r2,10
  28058c:	e0bfef17 	ldw	r2,-68(fp)
  280590:	1885883a 	add	r2,r3,r2
  280594:	1085883a 	add	r2,r2,r2
  280598:	1007883a 	mov	r3,r2
  28059c:	e0bfed17 	ldw	r2,-76(fp)
  2805a0:	1887883a 	add	r3,r3,r2
  2805a4:	e0bffd0b 	ldhu	r2,-12(fp)
  2805a8:	1880000d 	sth	r2,0(r3)
  2805ac:	e0bfee17 	ldw	r2,-72(fp)
  2805b0:	10800044 	addi	r2,r2,1
  2805b4:	100692ba 	slli	r3,r2,10
  2805b8:	e0bfef17 	ldw	r2,-68(fp)
  2805bc:	1885883a 	add	r2,r3,r2
  2805c0:	1085883a 	add	r2,r2,r2
  2805c4:	1007883a 	mov	r3,r2
  2805c8:	e0bfed17 	ldw	r2,-76(fp)
  2805cc:	1887883a 	add	r3,r3,r2
  2805d0:	e0bffd0b 	ldhu	r2,-12(fp)
  2805d4:	1880000d 	sth	r2,0(r3)
  2805d8:	e0bfee17 	ldw	r2,-72(fp)
  2805dc:	10bfffc4 	addi	r2,r2,-1
  2805e0:	100692ba 	slli	r3,r2,10
  2805e4:	e0bfef17 	ldw	r2,-68(fp)
  2805e8:	1885883a 	add	r2,r3,r2
  2805ec:	1085883a 	add	r2,r2,r2
  2805f0:	1007883a 	mov	r3,r2
  2805f4:	e0bfed17 	ldw	r2,-76(fp)
  2805f8:	1887883a 	add	r3,r3,r2
  2805fc:	e0bffd0b 	ldhu	r2,-12(fp)
  280600:	1880000d 	sth	r2,0(r3)
  280604:	e0bff817 	ldw	r2,-32(fp)
  280608:	10800044 	addi	r2,r2,1
  28060c:	e0bff815 	stw	r2,-32(fp)
  280610:	e0fff817 	ldw	r3,-32(fp)
  280614:	e0bff217 	ldw	r2,-56(fp)
  280618:	18bfc716 	blt	r3,r2,280538 <line_fast+0x234>
  28061c:	e037883a 	mov	sp,fp
  280620:	df000017 	ldw	fp,0(sp)
  280624:	dec00104 	addi	sp,sp,4
  280628:	f800283a 	ret

0028062c <clear_screen>:
  28062c:	defffd04 	addi	sp,sp,-12
  280630:	dfc00215 	stw	ra,8(sp)
  280634:	df000115 	stw	fp,4(sp)
  280638:	df000104 	addi	fp,sp,4
  28063c:	d8000015 	stw	zero,0(sp)
  280640:	0009883a 	mov	r4,zero
  280644:	000b883a 	mov	r5,zero
  280648:	0180a004 	movi	r6,640
  28064c:	01c07804 	movi	r7,480
  280650:	02806680 	call	280668 <draw_box>
  280654:	e037883a 	mov	sp,fp
  280658:	dfc00117 	ldw	ra,4(sp)
  28065c:	df000017 	ldw	fp,0(sp)
  280660:	dec00204 	addi	sp,sp,8
  280664:	f800283a 	ret

00280668 <draw_box>:
  280668:	defff604 	addi	sp,sp,-40
  28066c:	df000915 	stw	fp,36(sp)
  280670:	df000904 	addi	fp,sp,36
  280674:	e13ffb15 	stw	r4,-20(fp)
  280678:	e17ffc15 	stw	r5,-16(fp)
  28067c:	e1bffd15 	stw	r6,-12(fp)
  280680:	e1fffe15 	stw	r7,-8(fp)
  280684:	e0800117 	ldw	r2,4(fp)
  280688:	e0bfff0d 	sth	r2,-4(fp)
  28068c:	e03ff715 	stw	zero,-36(fp)
  280690:	e0bffc17 	ldw	r2,-16(fp)
  280694:	e0bff915 	stw	r2,-28(fp)
  280698:	00001806 	br	2806fc <draw_box+0x94>
  28069c:	e0bffb17 	ldw	r2,-20(fp)
  2806a0:	e0bff815 	stw	r2,-32(fp)
  2806a4:	00000f06 	br	2806e4 <draw_box+0x7c>
  2806a8:	e0bff917 	ldw	r2,-28(fp)
  2806ac:	100692ba 	slli	r3,r2,10
  2806b0:	e0bff817 	ldw	r2,-32(fp)
  2806b4:	1885883a 	add	r2,r3,r2
  2806b8:	e0bffa15 	stw	r2,-24(fp)
  2806bc:	e0bffa17 	ldw	r2,-24(fp)
  2806c0:	1085883a 	add	r2,r2,r2
  2806c4:	1007883a 	mov	r3,r2
  2806c8:	e0bff717 	ldw	r2,-36(fp)
  2806cc:	1887883a 	add	r3,r3,r2
  2806d0:	e0bfff0b 	ldhu	r2,-4(fp)
  2806d4:	1880000d 	sth	r2,0(r3)
  2806d8:	e0bff817 	ldw	r2,-32(fp)
  2806dc:	10800044 	addi	r2,r2,1
  2806e0:	e0bff815 	stw	r2,-32(fp)
  2806e4:	e0fff817 	ldw	r3,-32(fp)
  2806e8:	e0bffd17 	ldw	r2,-12(fp)
  2806ec:	18bfee16 	blt	r3,r2,2806a8 <draw_box+0x40>
  2806f0:	e0bff917 	ldw	r2,-28(fp)
  2806f4:	10800044 	addi	r2,r2,1
  2806f8:	e0bff915 	stw	r2,-28(fp)
  2806fc:	e0fff917 	ldw	r3,-28(fp)
  280700:	e0bffe17 	ldw	r2,-8(fp)
  280704:	18bfe516 	blt	r3,r2,28069c <draw_box+0x34>
  280708:	e0bffc17 	ldw	r2,-16(fp)
  28070c:	e0bff915 	stw	r2,-28(fp)
  280710:	00001806 	br	280774 <draw_box+0x10c>
  280714:	e0bffb17 	ldw	r2,-20(fp)
  280718:	e0bff815 	stw	r2,-32(fp)
  28071c:	00000f06 	br	28075c <draw_box+0xf4>
  280720:	e0bff917 	ldw	r2,-28(fp)
  280724:	100692ba 	slli	r3,r2,10
  280728:	e0bff817 	ldw	r2,-32(fp)
  28072c:	1885883a 	add	r2,r3,r2
  280730:	e0bffa15 	stw	r2,-24(fp)
  280734:	e0bffa17 	ldw	r2,-24(fp)
  280738:	1085883a 	add	r2,r2,r2
  28073c:	1007883a 	mov	r3,r2
  280740:	e0bff717 	ldw	r2,-36(fp)
  280744:	1887883a 	add	r3,r3,r2
  280748:	e0bfff0b 	ldhu	r2,-4(fp)
  28074c:	1880000d 	sth	r2,0(r3)
  280750:	e0bff817 	ldw	r2,-32(fp)
  280754:	10800044 	addi	r2,r2,1
  280758:	e0bff815 	stw	r2,-32(fp)
  28075c:	e0fff817 	ldw	r3,-32(fp)
  280760:	e0bffd17 	ldw	r2,-12(fp)
  280764:	18bfee16 	blt	r3,r2,280720 <draw_box+0xb8>
  280768:	e0bff917 	ldw	r2,-28(fp)
  28076c:	10800044 	addi	r2,r2,1
  280770:	e0bff915 	stw	r2,-28(fp)
  280774:	e0fff917 	ldw	r3,-28(fp)
  280778:	e0bffe17 	ldw	r2,-8(fp)
  28077c:	18bfe516 	blt	r3,r2,280714 <draw_box+0xac>
  280780:	e037883a 	mov	sp,fp
  280784:	df000017 	ldw	fp,0(sp)
  280788:	dec00104 	addi	sp,sp,4
  28078c:	f800283a 	ret

00280790 <alt_load>:
  280790:	defffe04 	addi	sp,sp,-8
  280794:	dfc00115 	stw	ra,4(sp)
  280798:	df000015 	stw	fp,0(sp)
  28079c:	d839883a 	mov	fp,sp
  2807a0:	01000a34 	movhi	r4,40
  2807a4:	21167004 	addi	r4,r4,22976
  2807a8:	01400a34 	movhi	r5,40
  2807ac:	29508404 	addi	r5,r5,16912
  2807b0:	01800a34 	movhi	r6,40
  2807b4:	31967004 	addi	r6,r6,22976
  2807b8:	02808100 	call	280810 <alt_load_section>
  2807bc:	01000a34 	movhi	r4,40
  2807c0:	21000804 	addi	r4,r4,32
  2807c4:	01400a34 	movhi	r5,40
  2807c8:	29400804 	addi	r5,r5,32
  2807cc:	01800a34 	movhi	r6,40
  2807d0:	31806d04 	addi	r6,r6,436
  2807d4:	02808100 	call	280810 <alt_load_section>
  2807d8:	01000a34 	movhi	r4,40
  2807dc:	210fcb04 	addi	r4,r4,16172
  2807e0:	01400a34 	movhi	r5,40
  2807e4:	294fcb04 	addi	r5,r5,16172
  2807e8:	01800a34 	movhi	r6,40
  2807ec:	31908404 	addi	r6,r6,16912
  2807f0:	02808100 	call	280810 <alt_load_section>
  2807f4:	02829c00 	call	2829c0 <alt_dcache_flush_all>
  2807f8:	0282c0c0 	call	282c0c <alt_icache_flush_all>
  2807fc:	e037883a 	mov	sp,fp
  280800:	dfc00117 	ldw	ra,4(sp)
  280804:	df000017 	ldw	fp,0(sp)
  280808:	dec00204 	addi	sp,sp,8
  28080c:	f800283a 	ret

00280810 <alt_load_section>:
  280810:	defffc04 	addi	sp,sp,-16
  280814:	df000315 	stw	fp,12(sp)
  280818:	df000304 	addi	fp,sp,12
  28081c:	e13ffd15 	stw	r4,-12(fp)
  280820:	e17ffe15 	stw	r5,-8(fp)
  280824:	e1bfff15 	stw	r6,-4(fp)
  280828:	e0fffe17 	ldw	r3,-8(fp)
  28082c:	e0bffd17 	ldw	r2,-12(fp)
  280830:	18800e26 	beq	r3,r2,28086c <alt_load_section+0x5c>
  280834:	00000a06 	br	280860 <alt_load_section+0x50>
  280838:	e0bffd17 	ldw	r2,-12(fp)
  28083c:	10c00017 	ldw	r3,0(r2)
  280840:	e0bffe17 	ldw	r2,-8(fp)
  280844:	10c00015 	stw	r3,0(r2)
  280848:	e0bffe17 	ldw	r2,-8(fp)
  28084c:	10800104 	addi	r2,r2,4
  280850:	e0bffe15 	stw	r2,-8(fp)
  280854:	e0bffd17 	ldw	r2,-12(fp)
  280858:	10800104 	addi	r2,r2,4
  28085c:	e0bffd15 	stw	r2,-12(fp)
  280860:	e0fffe17 	ldw	r3,-8(fp)
  280864:	e0bfff17 	ldw	r2,-4(fp)
  280868:	18bff31e 	bne	r3,r2,280838 <alt_load_section+0x28>
  28086c:	e037883a 	mov	sp,fp
  280870:	df000017 	ldw	fp,0(sp)
  280874:	dec00104 	addi	sp,sp,4
  280878:	f800283a 	ret

0028087c <alt_main>:
  28087c:	defffd04 	addi	sp,sp,-12
  280880:	dfc00215 	stw	ra,8(sp)
  280884:	df000115 	stw	fp,4(sp)
  280888:	df000104 	addi	fp,sp,4
  28088c:	0009883a 	mov	r4,zero
  280890:	02809180 	call	280918 <alt_irq_init>
  280894:	028094c0 	call	28094c <alt_sys_init>
  280898:	01000a34 	movhi	r4,40
  28089c:	210fcb04 	addi	r4,r4,16172
  2808a0:	01400a34 	movhi	r5,40
  2808a4:	294fce04 	addi	r5,r5,16184
  2808a8:	01800a34 	movhi	r6,40
  2808ac:	318fce04 	addi	r6,r6,16184
  2808b0:	0282fcc0 	call	282fcc <alt_io_redirect>
  2808b4:	0282b440 	call	282b44 <_do_ctors>
  2808b8:	01000a34 	movhi	r4,40
  2808bc:	210aea04 	addi	r4,r4,11176
  2808c0:	02838280 	call	283828 <atexit>
  2808c4:	d125f917 	ldw	r4,-26652(gp)
  2808c8:	d165fa17 	ldw	r5,-26648(gp)
  2808cc:	d1a5fb17 	ldw	r6,-26644(gp)
  2808d0:	02802000 	call	280200 <main>
  2808d4:	e0bfff15 	stw	r2,-4(fp)
  2808d8:	01000044 	movi	r4,1
  2808dc:	02828640 	call	282864 <close>
  2808e0:	e13fff17 	ldw	r4,-4(fp)
  2808e4:	028383c0 	call	28383c <exit>

002808e8 <usleep>:
  2808e8:	defffd04 	addi	sp,sp,-12
  2808ec:	dfc00215 	stw	ra,8(sp)
  2808f0:	df000115 	stw	fp,4(sp)
  2808f4:	df000104 	addi	fp,sp,4
  2808f8:	e13fff15 	stw	r4,-4(fp)
  2808fc:	e13fff17 	ldw	r4,-4(fp)
  280900:	02827180 	call	282718 <alt_busy_sleep>
  280904:	e037883a 	mov	sp,fp
  280908:	dfc00117 	ldw	ra,4(sp)
  28090c:	df000017 	ldw	fp,0(sp)
  280910:	dec00204 	addi	sp,sp,8
  280914:	f800283a 	ret

00280918 <alt_irq_init>:
  280918:	defffd04 	addi	sp,sp,-12
  28091c:	dfc00215 	stw	ra,8(sp)
  280920:	df000115 	stw	fp,4(sp)
  280924:	df000104 	addi	fp,sp,4
  280928:	e13fff15 	stw	r4,-4(fp)
  28092c:	028350c0 	call	28350c <altera_nios2_qsys_irq_init>
  280930:	00800044 	movi	r2,1
  280934:	1001703a 	wrctl	status,r2
  280938:	e037883a 	mov	sp,fp
  28093c:	dfc00117 	ldw	ra,4(sp)
  280940:	df000017 	ldw	fp,0(sp)
  280944:	dec00204 	addi	sp,sp,8
  280948:	f800283a 	ret

0028094c <alt_sys_init>:
  28094c:	defffd04 	addi	sp,sp,-12
  280950:	dfc00215 	stw	ra,8(sp)
  280954:	df000115 	stw	fp,4(sp)
  280958:	df000104 	addi	fp,sp,4
  28095c:	01000a34 	movhi	r4,40
  280960:	21108e04 	addi	r4,r4,16952
  280964:	000b883a 	mov	r5,zero
  280968:	000d883a 	mov	r6,zero
  28096c:	0280d200 	call	280d20 <altera_avalon_jtag_uart_init>
  280970:	01000a34 	movhi	r4,40
  280974:	21108404 	addi	r4,r4,16912
  280978:	0280ba00 	call	280ba0 <alt_dev_reg>
  28097c:	01000a34 	movhi	r4,40
  280980:	2114a604 	addi	r4,r4,21144
  280984:	02824300 	call	282430 <altera_avalon_lcd_16207_init>
  280988:	01000a34 	movhi	r4,40
  28098c:	21149c04 	addi	r4,r4,21104
  280990:	0280ba00 	call	280ba0 <alt_dev_reg>
  280994:	00800a34 	movhi	r2,40
  280998:	1094e404 	addi	r2,r2,21392
  28099c:	10800a17 	ldw	r2,40(r2)
  2809a0:	10800017 	ldw	r2,0(r2)
  2809a4:	1007883a 	mov	r3,r2
  2809a8:	00800a34 	movhi	r2,40
  2809ac:	1094e404 	addi	r2,r2,21392
  2809b0:	10c00b15 	stw	r3,44(r2)
  2809b4:	00800a34 	movhi	r2,40
  2809b8:	1094e404 	addi	r2,r2,21392
  2809bc:	10800a17 	ldw	r2,40(r2)
  2809c0:	10800104 	addi	r2,r2,4
  2809c4:	10800017 	ldw	r2,0(r2)
  2809c8:	1007883a 	mov	r3,r2
  2809cc:	00800a34 	movhi	r2,40
  2809d0:	1094e404 	addi	r2,r2,21392
  2809d4:	10c00c15 	stw	r3,48(r2)
  2809d8:	00800a34 	movhi	r2,40
  2809dc:	1094e404 	addi	r2,r2,21392
  2809e0:	10800a17 	ldw	r2,40(r2)
  2809e4:	10800204 	addi	r2,r2,8
  2809e8:	10800017 	ldw	r2,0(r2)
  2809ec:	10ffffcc 	andi	r3,r2,65535
  2809f0:	00800a34 	movhi	r2,40
  2809f4:	1094e404 	addi	r2,r2,21392
  2809f8:	10c00f15 	stw	r3,60(r2)
  2809fc:	00800a34 	movhi	r2,40
  280a00:	1094e404 	addi	r2,r2,21392
  280a04:	10800a17 	ldw	r2,40(r2)
  280a08:	10800204 	addi	r2,r2,8
  280a0c:	10800017 	ldw	r2,0(r2)
  280a10:	1005d43a 	srai	r2,r2,16
  280a14:	10ffffcc 	andi	r3,r2,65535
  280a18:	00800a34 	movhi	r2,40
  280a1c:	1094e404 	addi	r2,r2,21392
  280a20:	10c01015 	stw	r3,64(r2)
  280a24:	00800a34 	movhi	r2,40
  280a28:	1094e404 	addi	r2,r2,21392
  280a2c:	10800a17 	ldw	r2,40(r2)
  280a30:	10800304 	addi	r2,r2,12
  280a34:	10800017 	ldw	r2,0(r2)
  280a38:	1005d07a 	srai	r2,r2,1
  280a3c:	10c0004c 	andi	r3,r2,1
  280a40:	00800a34 	movhi	r2,40
  280a44:	1094e404 	addi	r2,r2,21392
  280a48:	10c00d15 	stw	r3,52(r2)
  280a4c:	00800a34 	movhi	r2,40
  280a50:	1094e404 	addi	r2,r2,21392
  280a54:	10800a17 	ldw	r2,40(r2)
  280a58:	10800304 	addi	r2,r2,12
  280a5c:	10800017 	ldw	r2,0(r2)
  280a60:	1005d13a 	srai	r2,r2,4
  280a64:	10c003cc 	andi	r3,r2,15
  280a68:	00800a34 	movhi	r2,40
  280a6c:	1094e404 	addi	r2,r2,21392
  280a70:	10c00e15 	stw	r3,56(r2)
  280a74:	00800a34 	movhi	r2,40
  280a78:	1094e404 	addi	r2,r2,21392
  280a7c:	10800a17 	ldw	r2,40(r2)
  280a80:	10800304 	addi	r2,r2,12
  280a84:	10800017 	ldw	r2,0(r2)
  280a88:	1005d43a 	srai	r2,r2,16
  280a8c:	1007883a 	mov	r3,r2
  280a90:	00bfffc4 	movi	r2,-1
  280a94:	1884703a 	and	r2,r3,r2
  280a98:	e0bfff45 	stb	r2,-3(fp)
  280a9c:	00800a34 	movhi	r2,40
  280aa0:	1094e404 	addi	r2,r2,21392
  280aa4:	10800a17 	ldw	r2,40(r2)
  280aa8:	10800304 	addi	r2,r2,12
  280aac:	10800017 	ldw	r2,0(r2)
  280ab0:	1005d63a 	srai	r2,r2,24
  280ab4:	1007883a 	mov	r3,r2
  280ab8:	00bfffc4 	movi	r2,-1
  280abc:	1884703a 	and	r2,r3,r2
  280ac0:	e0bfff05 	stb	r2,-4(fp)
  280ac4:	00800a34 	movhi	r2,40
  280ac8:	1094e404 	addi	r2,r2,21392
  280acc:	10800e17 	ldw	r2,56(r2)
  280ad0:	10800058 	cmpnei	r2,r2,1
  280ad4:	1000041e 	bne	r2,zero,280ae8 <alt_sys_init+0x19c>
  280ad8:	00800a34 	movhi	r2,40
  280adc:	1094e404 	addi	r2,r2,21392
  280ae0:	10001115 	stw	zero,68(r2)
  280ae4:	00000e06 	br	280b20 <alt_sys_init+0x1d4>
  280ae8:	00800a34 	movhi	r2,40
  280aec:	1094e404 	addi	r2,r2,21392
  280af0:	10800e17 	ldw	r2,56(r2)
  280af4:	10800098 	cmpnei	r2,r2,2
  280af8:	1000051e 	bne	r2,zero,280b10 <alt_sys_init+0x1c4>
  280afc:	00c00a34 	movhi	r3,40
  280b00:	18d4e404 	addi	r3,r3,21392
  280b04:	00800044 	movi	r2,1
  280b08:	18801115 	stw	r2,68(r3)
  280b0c:	00000406 	br	280b20 <alt_sys_init+0x1d4>
  280b10:	00c00a34 	movhi	r3,40
  280b14:	18d4e404 	addi	r3,r3,21392
  280b18:	00800084 	movi	r2,2
  280b1c:	18801115 	stw	r2,68(r3)
  280b20:	e0ffff43 	ldbu	r3,-3(fp)
  280b24:	00800804 	movi	r2,32
  280b28:	10c7c83a 	sub	r3,r2,r3
  280b2c:	00bfffc4 	movi	r2,-1
  280b30:	10c6d83a 	srl	r3,r2,r3
  280b34:	00800a34 	movhi	r2,40
  280b38:	1094e404 	addi	r2,r2,21392
  280b3c:	10c01215 	stw	r3,72(r2)
  280b40:	e0ffff43 	ldbu	r3,-3(fp)
  280b44:	00800a34 	movhi	r2,40
  280b48:	1094e404 	addi	r2,r2,21392
  280b4c:	10801117 	ldw	r2,68(r2)
  280b50:	1887883a 	add	r3,r3,r2
  280b54:	00800a34 	movhi	r2,40
  280b58:	1094e404 	addi	r2,r2,21392
  280b5c:	10c01315 	stw	r3,76(r2)
  280b60:	e0ffff03 	ldbu	r3,-4(fp)
  280b64:	00800804 	movi	r2,32
  280b68:	10c7c83a 	sub	r3,r2,r3
  280b6c:	00bfffc4 	movi	r2,-1
  280b70:	10c6d83a 	srl	r3,r2,r3
  280b74:	00800a34 	movhi	r2,40
  280b78:	1094e404 	addi	r2,r2,21392
  280b7c:	10c01415 	stw	r3,80(r2)
  280b80:	01000a34 	movhi	r4,40
  280b84:	2114e404 	addi	r4,r4,21392
  280b88:	0280ba00 	call	280ba0 <alt_dev_reg>
  280b8c:	e037883a 	mov	sp,fp
  280b90:	dfc00117 	ldw	ra,4(sp)
  280b94:	df000017 	ldw	fp,0(sp)
  280b98:	dec00204 	addi	sp,sp,8
  280b9c:	f800283a 	ret

00280ba0 <alt_dev_reg>:
  280ba0:	defffd04 	addi	sp,sp,-12
  280ba4:	dfc00215 	stw	ra,8(sp)
  280ba8:	df000115 	stw	fp,4(sp)
  280bac:	df000104 	addi	fp,sp,4
  280bb0:	e13fff15 	stw	r4,-4(fp)
  280bb4:	e13fff17 	ldw	r4,-4(fp)
  280bb8:	01400a34 	movhi	r5,40
  280bbc:	29566604 	addi	r5,r5,22936
  280bc0:	0282a300 	call	282a30 <alt_dev_llist_insert>
  280bc4:	e037883a 	mov	sp,fp
  280bc8:	dfc00117 	ldw	ra,4(sp)
  280bcc:	df000017 	ldw	fp,0(sp)
  280bd0:	dec00204 	addi	sp,sp,8
  280bd4:	f800283a 	ret

00280bd8 <altera_avalon_jtag_uart_read_fd>:
  280bd8:	defffa04 	addi	sp,sp,-24
  280bdc:	dfc00515 	stw	ra,20(sp)
  280be0:	df000415 	stw	fp,16(sp)
  280be4:	df000404 	addi	fp,sp,16
  280be8:	e13ffd15 	stw	r4,-12(fp)
  280bec:	e17ffe15 	stw	r5,-8(fp)
  280bf0:	e1bfff15 	stw	r6,-4(fp)
  280bf4:	e0bffd17 	ldw	r2,-12(fp)
  280bf8:	10800017 	ldw	r2,0(r2)
  280bfc:	e0bffc15 	stw	r2,-16(fp)
  280c00:	e0bffc17 	ldw	r2,-16(fp)
  280c04:	11000a04 	addi	r4,r2,40
  280c08:	e0bffd17 	ldw	r2,-12(fp)
  280c0c:	11c00217 	ldw	r7,8(r2)
  280c10:	e17ffe17 	ldw	r5,-8(fp)
  280c14:	e1bfff17 	ldw	r6,-4(fp)
  280c18:	02812200 	call	281220 <altera_avalon_jtag_uart_read>
  280c1c:	e037883a 	mov	sp,fp
  280c20:	dfc00117 	ldw	ra,4(sp)
  280c24:	df000017 	ldw	fp,0(sp)
  280c28:	dec00204 	addi	sp,sp,8
  280c2c:	f800283a 	ret

00280c30 <altera_avalon_jtag_uart_write_fd>:
  280c30:	defffa04 	addi	sp,sp,-24
  280c34:	dfc00515 	stw	ra,20(sp)
  280c38:	df000415 	stw	fp,16(sp)
  280c3c:	df000404 	addi	fp,sp,16
  280c40:	e13ffd15 	stw	r4,-12(fp)
  280c44:	e17ffe15 	stw	r5,-8(fp)
  280c48:	e1bfff15 	stw	r6,-4(fp)
  280c4c:	e0bffd17 	ldw	r2,-12(fp)
  280c50:	10800017 	ldw	r2,0(r2)
  280c54:	e0bffc15 	stw	r2,-16(fp)
  280c58:	e0bffc17 	ldw	r2,-16(fp)
  280c5c:	11000a04 	addi	r4,r2,40
  280c60:	e0bffd17 	ldw	r2,-12(fp)
  280c64:	11c00217 	ldw	r7,8(r2)
  280c68:	e17ffe17 	ldw	r5,-8(fp)
  280c6c:	e1bfff17 	ldw	r6,-4(fp)
  280c70:	02814440 	call	281444 <altera_avalon_jtag_uart_write>
  280c74:	e037883a 	mov	sp,fp
  280c78:	dfc00117 	ldw	ra,4(sp)
  280c7c:	df000017 	ldw	fp,0(sp)
  280c80:	dec00204 	addi	sp,sp,8
  280c84:	f800283a 	ret

00280c88 <altera_avalon_jtag_uart_close_fd>:
  280c88:	defffc04 	addi	sp,sp,-16
  280c8c:	dfc00315 	stw	ra,12(sp)
  280c90:	df000215 	stw	fp,8(sp)
  280c94:	df000204 	addi	fp,sp,8
  280c98:	e13fff15 	stw	r4,-4(fp)
  280c9c:	e0bfff17 	ldw	r2,-4(fp)
  280ca0:	10800017 	ldw	r2,0(r2)
  280ca4:	e0bffe15 	stw	r2,-8(fp)
  280ca8:	e0bffe17 	ldw	r2,-8(fp)
  280cac:	11000a04 	addi	r4,r2,40
  280cb0:	e0bfff17 	ldw	r2,-4(fp)
  280cb4:	11400217 	ldw	r5,8(r2)
  280cb8:	02810b80 	call	2810b8 <altera_avalon_jtag_uart_close>
  280cbc:	e037883a 	mov	sp,fp
  280cc0:	dfc00117 	ldw	ra,4(sp)
  280cc4:	df000017 	ldw	fp,0(sp)
  280cc8:	dec00204 	addi	sp,sp,8
  280ccc:	f800283a 	ret

00280cd0 <altera_avalon_jtag_uart_ioctl_fd>:
  280cd0:	defffa04 	addi	sp,sp,-24
  280cd4:	dfc00515 	stw	ra,20(sp)
  280cd8:	df000415 	stw	fp,16(sp)
  280cdc:	df000404 	addi	fp,sp,16
  280ce0:	e13ffd15 	stw	r4,-12(fp)
  280ce4:	e17ffe15 	stw	r5,-8(fp)
  280ce8:	e1bfff15 	stw	r6,-4(fp)
  280cec:	e0bffd17 	ldw	r2,-12(fp)
  280cf0:	10800017 	ldw	r2,0(r2)
  280cf4:	e0bffc15 	stw	r2,-16(fp)
  280cf8:	e0bffc17 	ldw	r2,-16(fp)
  280cfc:	11000a04 	addi	r4,r2,40
  280d00:	e17ffe17 	ldw	r5,-8(fp)
  280d04:	e1bfff17 	ldw	r6,-4(fp)
  280d08:	028112c0 	call	28112c <altera_avalon_jtag_uart_ioctl>
  280d0c:	e037883a 	mov	sp,fp
  280d10:	dfc00117 	ldw	ra,4(sp)
  280d14:	df000017 	ldw	fp,0(sp)
  280d18:	dec00204 	addi	sp,sp,8
  280d1c:	f800283a 	ret

00280d20 <altera_avalon_jtag_uart_init>:
  280d20:	defffa04 	addi	sp,sp,-24
  280d24:	dfc00515 	stw	ra,20(sp)
  280d28:	df000415 	stw	fp,16(sp)
  280d2c:	df000404 	addi	fp,sp,16
  280d30:	e13ffd15 	stw	r4,-12(fp)
  280d34:	e17ffe15 	stw	r5,-8(fp)
  280d38:	e1bfff15 	stw	r6,-4(fp)
  280d3c:	e0fffd17 	ldw	r3,-12(fp)
  280d40:	00800044 	movi	r2,1
  280d44:	18800815 	stw	r2,32(r3)
  280d48:	e0bffd17 	ldw	r2,-12(fp)
  280d4c:	10800017 	ldw	r2,0(r2)
  280d50:	11000104 	addi	r4,r2,4
  280d54:	e0bffd17 	ldw	r2,-12(fp)
  280d58:	10800817 	ldw	r2,32(r2)
  280d5c:	1007883a 	mov	r3,r2
  280d60:	2005883a 	mov	r2,r4
  280d64:	10c00035 	stwio	r3,0(r2)
  280d68:	e13ffe17 	ldw	r4,-8(fp)
  280d6c:	e17fff17 	ldw	r5,-4(fp)
  280d70:	d8000015 	stw	zero,0(sp)
  280d74:	01800a34 	movhi	r6,40
  280d78:	31837804 	addi	r6,r6,3552
  280d7c:	e1fffd17 	ldw	r7,-12(fp)
  280d80:	0282c3c0 	call	282c3c <alt_ic_isr_register>
  280d84:	e0bffd17 	ldw	r2,-12(fp)
  280d88:	10000915 	stw	zero,36(r2)
  280d8c:	e0bffd17 	ldw	r2,-12(fp)
  280d90:	11000204 	addi	r4,r2,8
  280d94:	00800a34 	movhi	r2,40
  280d98:	109c6004 	addi	r2,r2,29056
  280d9c:	10800017 	ldw	r2,0(r2)
  280da0:	100b883a 	mov	r5,r2
  280da4:	01800a34 	movhi	r6,40
  280da8:	31840204 	addi	r6,r6,4104
  280dac:	e1fffd17 	ldw	r7,-12(fp)
  280db0:	02825c40 	call	2825c4 <alt_alarm_start>
  280db4:	1004403a 	cmpge	r2,r2,zero
  280db8:	1000041e 	bne	r2,zero,280dcc <altera_avalon_jtag_uart_init+0xac>
  280dbc:	e0fffd17 	ldw	r3,-12(fp)
  280dc0:	00a00034 	movhi	r2,32768
  280dc4:	10bfffc4 	addi	r2,r2,-1
  280dc8:	18800115 	stw	r2,4(r3)
  280dcc:	e037883a 	mov	sp,fp
  280dd0:	dfc00117 	ldw	ra,4(sp)
  280dd4:	df000017 	ldw	fp,0(sp)
  280dd8:	dec00204 	addi	sp,sp,8
  280ddc:	f800283a 	ret

00280de0 <altera_avalon_jtag_uart_irq>:
  280de0:	defff804 	addi	sp,sp,-32
  280de4:	df000715 	stw	fp,28(sp)
  280de8:	df000704 	addi	fp,sp,28
  280dec:	e13fff15 	stw	r4,-4(fp)
  280df0:	e0bfff17 	ldw	r2,-4(fp)
  280df4:	e0bffe15 	stw	r2,-8(fp)
  280df8:	e0bffe17 	ldw	r2,-8(fp)
  280dfc:	10800017 	ldw	r2,0(r2)
  280e00:	e0bffd15 	stw	r2,-12(fp)
  280e04:	00000006 	br	280e08 <altera_avalon_jtag_uart_irq+0x28>
  280e08:	e0bffd17 	ldw	r2,-12(fp)
  280e0c:	10800104 	addi	r2,r2,4
  280e10:	10800037 	ldwio	r2,0(r2)
  280e14:	e0bffc15 	stw	r2,-16(fp)
  280e18:	e0bffc17 	ldw	r2,-16(fp)
  280e1c:	1080c00c 	andi	r2,r2,768
  280e20:	1005003a 	cmpeq	r2,r2,zero
  280e24:	1000741e 	bne	r2,zero,280ff8 <altera_avalon_jtag_uart_irq+0x218>
  280e28:	e0bffc17 	ldw	r2,-16(fp)
  280e2c:	1080400c 	andi	r2,r2,256
  280e30:	1005003a 	cmpeq	r2,r2,zero
  280e34:	1000351e 	bne	r2,zero,280f0c <altera_avalon_jtag_uart_irq+0x12c>
  280e38:	00800074 	movhi	r2,1
  280e3c:	e0bffb15 	stw	r2,-20(fp)
  280e40:	e0bffe17 	ldw	r2,-8(fp)
  280e44:	10800a17 	ldw	r2,40(r2)
  280e48:	10800044 	addi	r2,r2,1
  280e4c:	1081ffcc 	andi	r2,r2,2047
  280e50:	e0bffa15 	stw	r2,-24(fp)
  280e54:	e0bffe17 	ldw	r2,-8(fp)
  280e58:	10c00b17 	ldw	r3,44(r2)
  280e5c:	e0bffa17 	ldw	r2,-24(fp)
  280e60:	18801626 	beq	r3,r2,280ebc <altera_avalon_jtag_uart_irq+0xdc>
  280e64:	e0bffd17 	ldw	r2,-12(fp)
  280e68:	10800037 	ldwio	r2,0(r2)
  280e6c:	e0bffb15 	stw	r2,-20(fp)
  280e70:	e0bffb17 	ldw	r2,-20(fp)
  280e74:	10a0000c 	andi	r2,r2,32768
  280e78:	1005003a 	cmpeq	r2,r2,zero
  280e7c:	10000f1e 	bne	r2,zero,280ebc <altera_avalon_jtag_uart_irq+0xdc>
  280e80:	e0bffe17 	ldw	r2,-8(fp)
  280e84:	10c00a17 	ldw	r3,40(r2)
  280e88:	e0bffb17 	ldw	r2,-20(fp)
  280e8c:	1009883a 	mov	r4,r2
  280e90:	e0bffe17 	ldw	r2,-8(fp)
  280e94:	1885883a 	add	r2,r3,r2
  280e98:	10800e04 	addi	r2,r2,56
  280e9c:	11000005 	stb	r4,0(r2)
  280ea0:	e0bffe17 	ldw	r2,-8(fp)
  280ea4:	10800a17 	ldw	r2,40(r2)
  280ea8:	10800044 	addi	r2,r2,1
  280eac:	10c1ffcc 	andi	r3,r2,2047
  280eb0:	e0bffe17 	ldw	r2,-8(fp)
  280eb4:	10c00a15 	stw	r3,40(r2)
  280eb8:	003fe106 	br	280e40 <altera_avalon_jtag_uart_irq+0x60>
  280ebc:	e0bffb17 	ldw	r2,-20(fp)
  280ec0:	10bfffec 	andhi	r2,r2,65535
  280ec4:	1005003a 	cmpeq	r2,r2,zero
  280ec8:	1000101e 	bne	r2,zero,280f0c <altera_avalon_jtag_uart_irq+0x12c>
  280ecc:	e0bffe17 	ldw	r2,-8(fp)
  280ed0:	10c00817 	ldw	r3,32(r2)
  280ed4:	00bfff84 	movi	r2,-2
  280ed8:	1886703a 	and	r3,r3,r2
  280edc:	e0bffe17 	ldw	r2,-8(fp)
  280ee0:	10c00815 	stw	r3,32(r2)
  280ee4:	e0bffd17 	ldw	r2,-12(fp)
  280ee8:	11000104 	addi	r4,r2,4
  280eec:	e0bffe17 	ldw	r2,-8(fp)
  280ef0:	10800817 	ldw	r2,32(r2)
  280ef4:	1007883a 	mov	r3,r2
  280ef8:	2005883a 	mov	r2,r4
  280efc:	10c00035 	stwio	r3,0(r2)
  280f00:	e0bffd17 	ldw	r2,-12(fp)
  280f04:	10800104 	addi	r2,r2,4
  280f08:	10800037 	ldwio	r2,0(r2)
  280f0c:	e0bffc17 	ldw	r2,-16(fp)
  280f10:	1080800c 	andi	r2,r2,512
  280f14:	1005003a 	cmpeq	r2,r2,zero
  280f18:	103fbb1e 	bne	r2,zero,280e08 <altera_avalon_jtag_uart_irq+0x28>
  280f1c:	e0bffc17 	ldw	r2,-16(fp)
  280f20:	10bfffec 	andhi	r2,r2,65535
  280f24:	1004d43a 	srli	r2,r2,16
  280f28:	e0bff915 	stw	r2,-28(fp)
  280f2c:	00001506 	br	280f84 <altera_avalon_jtag_uart_irq+0x1a4>
  280f30:	e13ffd17 	ldw	r4,-12(fp)
  280f34:	e0bffe17 	ldw	r2,-8(fp)
  280f38:	10c00d17 	ldw	r3,52(r2)
  280f3c:	e0bffe17 	ldw	r2,-8(fp)
  280f40:	1885883a 	add	r2,r3,r2
  280f44:	10820e04 	addi	r2,r2,2104
  280f48:	10800003 	ldbu	r2,0(r2)
  280f4c:	10c03fcc 	andi	r3,r2,255
  280f50:	18c0201c 	xori	r3,r3,128
  280f54:	18ffe004 	addi	r3,r3,-128
  280f58:	2005883a 	mov	r2,r4
  280f5c:	10c00035 	stwio	r3,0(r2)
  280f60:	e0bffe17 	ldw	r2,-8(fp)
  280f64:	10800d17 	ldw	r2,52(r2)
  280f68:	10800044 	addi	r2,r2,1
  280f6c:	10c1ffcc 	andi	r3,r2,2047
  280f70:	e0bffe17 	ldw	r2,-8(fp)
  280f74:	10c00d15 	stw	r3,52(r2)
  280f78:	e0bff917 	ldw	r2,-28(fp)
  280f7c:	10bfffc4 	addi	r2,r2,-1
  280f80:	e0bff915 	stw	r2,-28(fp)
  280f84:	e0bff917 	ldw	r2,-28(fp)
  280f88:	1005003a 	cmpeq	r2,r2,zero
  280f8c:	1000051e 	bne	r2,zero,280fa4 <altera_avalon_jtag_uart_irq+0x1c4>
  280f90:	e0bffe17 	ldw	r2,-8(fp)
  280f94:	10c00d17 	ldw	r3,52(r2)
  280f98:	e0bffe17 	ldw	r2,-8(fp)
  280f9c:	10800c17 	ldw	r2,48(r2)
  280fa0:	18bfe31e 	bne	r3,r2,280f30 <altera_avalon_jtag_uart_irq+0x150>
  280fa4:	e0bff917 	ldw	r2,-28(fp)
  280fa8:	1005003a 	cmpeq	r2,r2,zero
  280fac:	103f961e 	bne	r2,zero,280e08 <altera_avalon_jtag_uart_irq+0x28>
  280fb0:	e0bffe17 	ldw	r2,-8(fp)
  280fb4:	10c00817 	ldw	r3,32(r2)
  280fb8:	00bfff44 	movi	r2,-3
  280fbc:	1886703a 	and	r3,r3,r2
  280fc0:	e0bffe17 	ldw	r2,-8(fp)
  280fc4:	10c00815 	stw	r3,32(r2)
  280fc8:	e0bffe17 	ldw	r2,-8(fp)
  280fcc:	10800017 	ldw	r2,0(r2)
  280fd0:	11000104 	addi	r4,r2,4
  280fd4:	e0bffe17 	ldw	r2,-8(fp)
  280fd8:	10800817 	ldw	r2,32(r2)
  280fdc:	1007883a 	mov	r3,r2
  280fe0:	2005883a 	mov	r2,r4
  280fe4:	10c00035 	stwio	r3,0(r2)
  280fe8:	e0bffd17 	ldw	r2,-12(fp)
  280fec:	10800104 	addi	r2,r2,4
  280ff0:	10800037 	ldwio	r2,0(r2)
  280ff4:	003f8406 	br	280e08 <altera_avalon_jtag_uart_irq+0x28>
  280ff8:	e037883a 	mov	sp,fp
  280ffc:	df000017 	ldw	fp,0(sp)
  281000:	dec00104 	addi	sp,sp,4
  281004:	f800283a 	ret

00281008 <altera_avalon_jtag_uart_timeout>:
  281008:	defffc04 	addi	sp,sp,-16
  28100c:	df000315 	stw	fp,12(sp)
  281010:	df000304 	addi	fp,sp,12
  281014:	e13fff15 	stw	r4,-4(fp)
  281018:	e0bfff17 	ldw	r2,-4(fp)
  28101c:	e0bffe15 	stw	r2,-8(fp)
  281020:	e0bffe17 	ldw	r2,-8(fp)
  281024:	10800017 	ldw	r2,0(r2)
  281028:	10800104 	addi	r2,r2,4
  28102c:	10800037 	ldwio	r2,0(r2)
  281030:	e0bffd15 	stw	r2,-12(fp)
  281034:	e0bffd17 	ldw	r2,-12(fp)
  281038:	1081000c 	andi	r2,r2,1024
  28103c:	1005003a 	cmpeq	r2,r2,zero
  281040:	10000c1e 	bne	r2,zero,281074 <altera_avalon_jtag_uart_timeout+0x6c>
  281044:	e0bffe17 	ldw	r2,-8(fp)
  281048:	10800017 	ldw	r2,0(r2)
  28104c:	11000104 	addi	r4,r2,4
  281050:	e0bffe17 	ldw	r2,-8(fp)
  281054:	10800817 	ldw	r2,32(r2)
  281058:	10810014 	ori	r2,r2,1024
  28105c:	1007883a 	mov	r3,r2
  281060:	2005883a 	mov	r2,r4
  281064:	10c00035 	stwio	r3,0(r2)
  281068:	e0bffe17 	ldw	r2,-8(fp)
  28106c:	10000915 	stw	zero,36(r2)
  281070:	00000a06 	br	28109c <altera_avalon_jtag_uart_timeout+0x94>
  281074:	e0bffe17 	ldw	r2,-8(fp)
  281078:	10c00917 	ldw	r3,36(r2)
  28107c:	00a00034 	movhi	r2,32768
  281080:	10bfff04 	addi	r2,r2,-4
  281084:	10c00536 	bltu	r2,r3,28109c <altera_avalon_jtag_uart_timeout+0x94>
  281088:	e0bffe17 	ldw	r2,-8(fp)
  28108c:	10800917 	ldw	r2,36(r2)
  281090:	10c00044 	addi	r3,r2,1
  281094:	e0bffe17 	ldw	r2,-8(fp)
  281098:	10c00915 	stw	r3,36(r2)
  28109c:	00800a34 	movhi	r2,40
  2810a0:	109c6004 	addi	r2,r2,29056
  2810a4:	10800017 	ldw	r2,0(r2)
  2810a8:	e037883a 	mov	sp,fp
  2810ac:	df000017 	ldw	fp,0(sp)
  2810b0:	dec00104 	addi	sp,sp,4
  2810b4:	f800283a 	ret

002810b8 <altera_avalon_jtag_uart_close>:
  2810b8:	defffc04 	addi	sp,sp,-16
  2810bc:	df000315 	stw	fp,12(sp)
  2810c0:	df000304 	addi	fp,sp,12
  2810c4:	e13ffd15 	stw	r4,-12(fp)
  2810c8:	e17ffe15 	stw	r5,-8(fp)
  2810cc:	00000706 	br	2810ec <altera_avalon_jtag_uart_close+0x34>
  2810d0:	e0bffe17 	ldw	r2,-8(fp)
  2810d4:	1090000c 	andi	r2,r2,16384
  2810d8:	1005003a 	cmpeq	r2,r2,zero
  2810dc:	1000031e 	bne	r2,zero,2810ec <altera_avalon_jtag_uart_close+0x34>
  2810e0:	00bffd44 	movi	r2,-11
  2810e4:	e0bfff15 	stw	r2,-4(fp)
  2810e8:	00000b06 	br	281118 <altera_avalon_jtag_uart_close+0x60>
  2810ec:	e0bffd17 	ldw	r2,-12(fp)
  2810f0:	10c00d17 	ldw	r3,52(r2)
  2810f4:	e0bffd17 	ldw	r2,-12(fp)
  2810f8:	10800c17 	ldw	r2,48(r2)
  2810fc:	18800526 	beq	r3,r2,281114 <altera_avalon_jtag_uart_close+0x5c>
  281100:	e0bffd17 	ldw	r2,-12(fp)
  281104:	10c00917 	ldw	r3,36(r2)
  281108:	e0bffd17 	ldw	r2,-12(fp)
  28110c:	10800117 	ldw	r2,4(r2)
  281110:	18bfef36 	bltu	r3,r2,2810d0 <altera_avalon_jtag_uart_close+0x18>
  281114:	e03fff15 	stw	zero,-4(fp)
  281118:	e0bfff17 	ldw	r2,-4(fp)
  28111c:	e037883a 	mov	sp,fp
  281120:	df000017 	ldw	fp,0(sp)
  281124:	dec00104 	addi	sp,sp,4
  281128:	f800283a 	ret

0028112c <altera_avalon_jtag_uart_ioctl>:
  28112c:	defff804 	addi	sp,sp,-32
  281130:	df000715 	stw	fp,28(sp)
  281134:	df000704 	addi	fp,sp,28
  281138:	e13ffb15 	stw	r4,-20(fp)
  28113c:	e17ffc15 	stw	r5,-16(fp)
  281140:	e1bffd15 	stw	r6,-12(fp)
  281144:	00bff9c4 	movi	r2,-25
  281148:	e0bffa15 	stw	r2,-24(fp)
  28114c:	e0bffc17 	ldw	r2,-16(fp)
  281150:	e0bfff15 	stw	r2,-4(fp)
  281154:	e0ffff17 	ldw	r3,-4(fp)
  281158:	189a8060 	cmpeqi	r2,r3,27137
  28115c:	1000041e 	bne	r2,zero,281170 <altera_avalon_jtag_uart_ioctl+0x44>
  281160:	e0ffff17 	ldw	r3,-4(fp)
  281164:	189a80a0 	cmpeqi	r2,r3,27138
  281168:	10001b1e 	bne	r2,zero,2811d8 <altera_avalon_jtag_uart_ioctl+0xac>
  28116c:	00002706 	br	28120c <altera_avalon_jtag_uart_ioctl+0xe0>
  281170:	e0bffb17 	ldw	r2,-20(fp)
  281174:	10c00117 	ldw	r3,4(r2)
  281178:	00a00034 	movhi	r2,32768
  28117c:	10bfffc4 	addi	r2,r2,-1
  281180:	18802226 	beq	r3,r2,28120c <altera_avalon_jtag_uart_ioctl+0xe0>
  281184:	e0bffd17 	ldw	r2,-12(fp)
  281188:	10800017 	ldw	r2,0(r2)
  28118c:	e0bff915 	stw	r2,-28(fp)
  281190:	e0bff917 	ldw	r2,-28(fp)
  281194:	10800090 	cmplti	r2,r2,2
  281198:	1000071e 	bne	r2,zero,2811b8 <altera_avalon_jtag_uart_ioctl+0x8c>
  28119c:	e0fff917 	ldw	r3,-28(fp)
  2811a0:	00a00034 	movhi	r2,32768
  2811a4:	10bfffc4 	addi	r2,r2,-1
  2811a8:	18800326 	beq	r3,r2,2811b8 <altera_avalon_jtag_uart_ioctl+0x8c>
  2811ac:	e0bff917 	ldw	r2,-28(fp)
  2811b0:	e0bffe15 	stw	r2,-8(fp)
  2811b4:	00000306 	br	2811c4 <altera_avalon_jtag_uart_ioctl+0x98>
  2811b8:	00e00034 	movhi	r3,32768
  2811bc:	18ffff84 	addi	r3,r3,-2
  2811c0:	e0fffe15 	stw	r3,-8(fp)
  2811c4:	e0bffb17 	ldw	r2,-20(fp)
  2811c8:	e0fffe17 	ldw	r3,-8(fp)
  2811cc:	10c00115 	stw	r3,4(r2)
  2811d0:	e03ffa15 	stw	zero,-24(fp)
  2811d4:	00000d06 	br	28120c <altera_avalon_jtag_uart_ioctl+0xe0>
  2811d8:	e0bffb17 	ldw	r2,-20(fp)
  2811dc:	10c00117 	ldw	r3,4(r2)
  2811e0:	00a00034 	movhi	r2,32768
  2811e4:	10bfffc4 	addi	r2,r2,-1
  2811e8:	18800826 	beq	r3,r2,28120c <altera_avalon_jtag_uart_ioctl+0xe0>
  2811ec:	e13ffd17 	ldw	r4,-12(fp)
  2811f0:	e0bffb17 	ldw	r2,-20(fp)
  2811f4:	10c00917 	ldw	r3,36(r2)
  2811f8:	e0bffb17 	ldw	r2,-20(fp)
  2811fc:	10800117 	ldw	r2,4(r2)
  281200:	1885803a 	cmpltu	r2,r3,r2
  281204:	20800015 	stw	r2,0(r4)
  281208:	e03ffa15 	stw	zero,-24(fp)
  28120c:	e0bffa17 	ldw	r2,-24(fp)
  281210:	e037883a 	mov	sp,fp
  281214:	df000017 	ldw	fp,0(sp)
  281218:	dec00104 	addi	sp,sp,4
  28121c:	f800283a 	ret

00281220 <altera_avalon_jtag_uart_read>:
  281220:	defff204 	addi	sp,sp,-56
  281224:	dfc00d15 	stw	ra,52(sp)
  281228:	df000c15 	stw	fp,48(sp)
  28122c:	df000c04 	addi	fp,sp,48
  281230:	e13ffb15 	stw	r4,-20(fp)
  281234:	e17ffc15 	stw	r5,-16(fp)
  281238:	e1bffd15 	stw	r6,-12(fp)
  28123c:	e1fffe15 	stw	r7,-8(fp)
  281240:	e0bffc17 	ldw	r2,-16(fp)
  281244:	e0bffa15 	stw	r2,-24(fp)
  281248:	00004806 	br	28136c <altera_avalon_jtag_uart_read+0x14c>
  28124c:	e0bffb17 	ldw	r2,-20(fp)
  281250:	10800a17 	ldw	r2,40(r2)
  281254:	e0bff715 	stw	r2,-36(fp)
  281258:	e0bffb17 	ldw	r2,-20(fp)
  28125c:	10800b17 	ldw	r2,44(r2)
  281260:	e0bff615 	stw	r2,-40(fp)
  281264:	e0fff717 	ldw	r3,-36(fp)
  281268:	e0bff617 	ldw	r2,-40(fp)
  28126c:	18800536 	bltu	r3,r2,281284 <altera_avalon_jtag_uart_read+0x64>
  281270:	e0bff717 	ldw	r2,-36(fp)
  281274:	e0fff617 	ldw	r3,-40(fp)
  281278:	10c5c83a 	sub	r2,r2,r3
  28127c:	e0bff815 	stw	r2,-32(fp)
  281280:	00000406 	br	281294 <altera_avalon_jtag_uart_read+0x74>
  281284:	00820004 	movi	r2,2048
  281288:	e0fff617 	ldw	r3,-40(fp)
  28128c:	10c5c83a 	sub	r2,r2,r3
  281290:	e0bff815 	stw	r2,-32(fp)
  281294:	e0bff817 	ldw	r2,-32(fp)
  281298:	1005003a 	cmpeq	r2,r2,zero
  28129c:	10001f1e 	bne	r2,zero,28131c <altera_avalon_jtag_uart_read+0xfc>
  2812a0:	e0fffd17 	ldw	r3,-12(fp)
  2812a4:	e0bff817 	ldw	r2,-32(fp)
  2812a8:	1880022e 	bgeu	r3,r2,2812b4 <altera_avalon_jtag_uart_read+0x94>
  2812ac:	e0bffd17 	ldw	r2,-12(fp)
  2812b0:	e0bff815 	stw	r2,-32(fp)
  2812b4:	e0bffb17 	ldw	r2,-20(fp)
  2812b8:	10c00e04 	addi	r3,r2,56
  2812bc:	e0bff617 	ldw	r2,-40(fp)
  2812c0:	1887883a 	add	r3,r3,r2
  2812c4:	e0bffa17 	ldw	r2,-24(fp)
  2812c8:	1009883a 	mov	r4,r2
  2812cc:	180b883a 	mov	r5,r3
  2812d0:	e1bff817 	ldw	r6,-32(fp)
  2812d4:	02838e80 	call	2838e8 <memcpy>
  2812d8:	e0fff817 	ldw	r3,-32(fp)
  2812dc:	e0bffa17 	ldw	r2,-24(fp)
  2812e0:	10c5883a 	add	r2,r2,r3
  2812e4:	e0bffa15 	stw	r2,-24(fp)
  2812e8:	e0fffd17 	ldw	r3,-12(fp)
  2812ec:	e0bff817 	ldw	r2,-32(fp)
  2812f0:	1885c83a 	sub	r2,r3,r2
  2812f4:	e0bffd15 	stw	r2,-12(fp)
  2812f8:	e0fff617 	ldw	r3,-40(fp)
  2812fc:	e0bff817 	ldw	r2,-32(fp)
  281300:	1885883a 	add	r2,r3,r2
  281304:	10c1ffcc 	andi	r3,r2,2047
  281308:	e0bffb17 	ldw	r2,-20(fp)
  28130c:	10c00b15 	stw	r3,44(r2)
  281310:	e0bffd17 	ldw	r2,-12(fp)
  281314:	10800048 	cmpgei	r2,r2,1
  281318:	103fcc1e 	bne	r2,zero,28124c <altera_avalon_jtag_uart_read+0x2c>
  28131c:	e0fffa17 	ldw	r3,-24(fp)
  281320:	e0bffc17 	ldw	r2,-16(fp)
  281324:	1880141e 	bne	r3,r2,281378 <altera_avalon_jtag_uart_read+0x158>
  281328:	e0bffe17 	ldw	r2,-8(fp)
  28132c:	1090000c 	andi	r2,r2,16384
  281330:	1004c03a 	cmpne	r2,r2,zero
  281334:	1000101e 	bne	r2,zero,281378 <altera_avalon_jtag_uart_read+0x158>
  281338:	e0bffb17 	ldw	r2,-20(fp)
  28133c:	10c00a17 	ldw	r3,40(r2)
  281340:	e0bff717 	ldw	r2,-36(fp)
  281344:	1880051e 	bne	r3,r2,28135c <altera_avalon_jtag_uart_read+0x13c>
  281348:	e0bffb17 	ldw	r2,-20(fp)
  28134c:	10c00917 	ldw	r3,36(r2)
  281350:	e0bffb17 	ldw	r2,-20(fp)
  281354:	10800117 	ldw	r2,4(r2)
  281358:	18bff736 	bltu	r3,r2,281338 <altera_avalon_jtag_uart_read+0x118>
  28135c:	e0bffb17 	ldw	r2,-20(fp)
  281360:	10c00a17 	ldw	r3,40(r2)
  281364:	e0bff717 	ldw	r2,-36(fp)
  281368:	18800326 	beq	r3,r2,281378 <altera_avalon_jtag_uart_read+0x158>
  28136c:	e0bffd17 	ldw	r2,-12(fp)
  281370:	10800048 	cmpgei	r2,r2,1
  281374:	103fb51e 	bne	r2,zero,28124c <altera_avalon_jtag_uart_read+0x2c>
  281378:	e0fffa17 	ldw	r3,-24(fp)
  28137c:	e0bffc17 	ldw	r2,-16(fp)
  281380:	18801926 	beq	r3,r2,2813e8 <altera_avalon_jtag_uart_read+0x1c8>
  281384:	0005303a 	rdctl	r2,status
  281388:	e0bff515 	stw	r2,-44(fp)
  28138c:	e0fff517 	ldw	r3,-44(fp)
  281390:	00bfff84 	movi	r2,-2
  281394:	1884703a 	and	r2,r3,r2
  281398:	1001703a 	wrctl	status,r2
  28139c:	e0bff517 	ldw	r2,-44(fp)
  2813a0:	e0bff915 	stw	r2,-28(fp)
  2813a4:	e0bffb17 	ldw	r2,-20(fp)
  2813a8:	10800817 	ldw	r2,32(r2)
  2813ac:	10c00054 	ori	r3,r2,1
  2813b0:	e0bffb17 	ldw	r2,-20(fp)
  2813b4:	10c00815 	stw	r3,32(r2)
  2813b8:	e0bffb17 	ldw	r2,-20(fp)
  2813bc:	10800017 	ldw	r2,0(r2)
  2813c0:	11000104 	addi	r4,r2,4
  2813c4:	e0bffb17 	ldw	r2,-20(fp)
  2813c8:	10800817 	ldw	r2,32(r2)
  2813cc:	1007883a 	mov	r3,r2
  2813d0:	2005883a 	mov	r2,r4
  2813d4:	10c00035 	stwio	r3,0(r2)
  2813d8:	e0bff917 	ldw	r2,-28(fp)
  2813dc:	e0bff415 	stw	r2,-48(fp)
  2813e0:	e0bff417 	ldw	r2,-48(fp)
  2813e4:	1001703a 	wrctl	status,r2
  2813e8:	e0fffa17 	ldw	r3,-24(fp)
  2813ec:	e0bffc17 	ldw	r2,-16(fp)
  2813f0:	18800526 	beq	r3,r2,281408 <altera_avalon_jtag_uart_read+0x1e8>
  2813f4:	e0fffa17 	ldw	r3,-24(fp)
  2813f8:	e0bffc17 	ldw	r2,-16(fp)
  2813fc:	1887c83a 	sub	r3,r3,r2
  281400:	e0ffff15 	stw	r3,-4(fp)
  281404:	00000906 	br	28142c <altera_avalon_jtag_uart_read+0x20c>
  281408:	e0bffe17 	ldw	r2,-8(fp)
  28140c:	1090000c 	andi	r2,r2,16384
  281410:	1005003a 	cmpeq	r2,r2,zero
  281414:	1000031e 	bne	r2,zero,281424 <altera_avalon_jtag_uart_read+0x204>
  281418:	00bffd44 	movi	r2,-11
  28141c:	e0bfff15 	stw	r2,-4(fp)
  281420:	00000206 	br	28142c <altera_avalon_jtag_uart_read+0x20c>
  281424:	00bffec4 	movi	r2,-5
  281428:	e0bfff15 	stw	r2,-4(fp)
  28142c:	e0bfff17 	ldw	r2,-4(fp)
  281430:	e037883a 	mov	sp,fp
  281434:	dfc00117 	ldw	ra,4(sp)
  281438:	df000017 	ldw	fp,0(sp)
  28143c:	dec00204 	addi	sp,sp,8
  281440:	f800283a 	ret

00281444 <altera_avalon_jtag_uart_write>:
  281444:	defff204 	addi	sp,sp,-56
  281448:	dfc00d15 	stw	ra,52(sp)
  28144c:	df000c15 	stw	fp,48(sp)
  281450:	df000c04 	addi	fp,sp,48
  281454:	e13ffb15 	stw	r4,-20(fp)
  281458:	e17ffc15 	stw	r5,-16(fp)
  28145c:	e1bffd15 	stw	r6,-12(fp)
  281460:	e1fffe15 	stw	r7,-8(fp)
  281464:	e03ff915 	stw	zero,-28(fp)
  281468:	e0bffc17 	ldw	r2,-16(fp)
  28146c:	e0bff615 	stw	r2,-40(fp)
  281470:	00003a06 	br	28155c <altera_avalon_jtag_uart_write+0x118>
  281474:	e0bffb17 	ldw	r2,-20(fp)
  281478:	10800c17 	ldw	r2,48(r2)
  28147c:	e0bffa15 	stw	r2,-24(fp)
  281480:	e0bffb17 	ldw	r2,-20(fp)
  281484:	10800d17 	ldw	r2,52(r2)
  281488:	e0bff915 	stw	r2,-28(fp)
  28148c:	e0fffa17 	ldw	r3,-24(fp)
  281490:	e0bff917 	ldw	r2,-28(fp)
  281494:	1880062e 	bgeu	r3,r2,2814b0 <altera_avalon_jtag_uart_write+0x6c>
  281498:	e0fff917 	ldw	r3,-28(fp)
  28149c:	e0bffa17 	ldw	r2,-24(fp)
  2814a0:	1885c83a 	sub	r2,r3,r2
  2814a4:	10bfffc4 	addi	r2,r2,-1
  2814a8:	e0bff815 	stw	r2,-32(fp)
  2814ac:	00000c06 	br	2814e0 <altera_avalon_jtag_uart_write+0x9c>
  2814b0:	e0bff917 	ldw	r2,-28(fp)
  2814b4:	1005003a 	cmpeq	r2,r2,zero
  2814b8:	1000051e 	bne	r2,zero,2814d0 <altera_avalon_jtag_uart_write+0x8c>
  2814bc:	00820004 	movi	r2,2048
  2814c0:	e0fffa17 	ldw	r3,-24(fp)
  2814c4:	10c5c83a 	sub	r2,r2,r3
  2814c8:	e0bff815 	stw	r2,-32(fp)
  2814cc:	00000406 	br	2814e0 <altera_avalon_jtag_uart_write+0x9c>
  2814d0:	0081ffc4 	movi	r2,2047
  2814d4:	e0fffa17 	ldw	r3,-24(fp)
  2814d8:	10c5c83a 	sub	r2,r2,r3
  2814dc:	e0bff815 	stw	r2,-32(fp)
  2814e0:	e0bff817 	ldw	r2,-32(fp)
  2814e4:	1005003a 	cmpeq	r2,r2,zero
  2814e8:	10001f1e 	bne	r2,zero,281568 <altera_avalon_jtag_uart_write+0x124>
  2814ec:	e0fffd17 	ldw	r3,-12(fp)
  2814f0:	e0bff817 	ldw	r2,-32(fp)
  2814f4:	1880022e 	bgeu	r3,r2,281500 <altera_avalon_jtag_uart_write+0xbc>
  2814f8:	e0bffd17 	ldw	r2,-12(fp)
  2814fc:	e0bff815 	stw	r2,-32(fp)
  281500:	e0bffb17 	ldw	r2,-20(fp)
  281504:	10c20e04 	addi	r3,r2,2104
  281508:	e0bffa17 	ldw	r2,-24(fp)
  28150c:	1885883a 	add	r2,r3,r2
  281510:	e0fffc17 	ldw	r3,-16(fp)
  281514:	1009883a 	mov	r4,r2
  281518:	180b883a 	mov	r5,r3
  28151c:	e1bff817 	ldw	r6,-32(fp)
  281520:	02838e80 	call	2838e8 <memcpy>
  281524:	e0fff817 	ldw	r3,-32(fp)
  281528:	e0bffc17 	ldw	r2,-16(fp)
  28152c:	10c5883a 	add	r2,r2,r3
  281530:	e0bffc15 	stw	r2,-16(fp)
  281534:	e0fffd17 	ldw	r3,-12(fp)
  281538:	e0bff817 	ldw	r2,-32(fp)
  28153c:	1885c83a 	sub	r2,r3,r2
  281540:	e0bffd15 	stw	r2,-12(fp)
  281544:	e0fffa17 	ldw	r3,-24(fp)
  281548:	e0bff817 	ldw	r2,-32(fp)
  28154c:	1885883a 	add	r2,r3,r2
  281550:	10c1ffcc 	andi	r3,r2,2047
  281554:	e0bffb17 	ldw	r2,-20(fp)
  281558:	10c00c15 	stw	r3,48(r2)
  28155c:	e0bffd17 	ldw	r2,-12(fp)
  281560:	10800048 	cmpgei	r2,r2,1
  281564:	103fc31e 	bne	r2,zero,281474 <altera_avalon_jtag_uart_write+0x30>
  281568:	0005303a 	rdctl	r2,status
  28156c:	e0bff515 	stw	r2,-44(fp)
  281570:	e0fff517 	ldw	r3,-44(fp)
  281574:	00bfff84 	movi	r2,-2
  281578:	1884703a 	and	r2,r3,r2
  28157c:	1001703a 	wrctl	status,r2
  281580:	e0bff517 	ldw	r2,-44(fp)
  281584:	e0bff715 	stw	r2,-36(fp)
  281588:	e0bffb17 	ldw	r2,-20(fp)
  28158c:	10800817 	ldw	r2,32(r2)
  281590:	10c00094 	ori	r3,r2,2
  281594:	e0bffb17 	ldw	r2,-20(fp)
  281598:	10c00815 	stw	r3,32(r2)
  28159c:	e0bffb17 	ldw	r2,-20(fp)
  2815a0:	10800017 	ldw	r2,0(r2)
  2815a4:	11000104 	addi	r4,r2,4
  2815a8:	e0bffb17 	ldw	r2,-20(fp)
  2815ac:	10800817 	ldw	r2,32(r2)
  2815b0:	1007883a 	mov	r3,r2
  2815b4:	2005883a 	mov	r2,r4
  2815b8:	10c00035 	stwio	r3,0(r2)
  2815bc:	e0bff717 	ldw	r2,-36(fp)
  2815c0:	e0bff415 	stw	r2,-48(fp)
  2815c4:	e0bff417 	ldw	r2,-48(fp)
  2815c8:	1001703a 	wrctl	status,r2
  2815cc:	e0bffd17 	ldw	r2,-12(fp)
  2815d0:	10800050 	cmplti	r2,r2,1
  2815d4:	1000111e 	bne	r2,zero,28161c <altera_avalon_jtag_uart_write+0x1d8>
  2815d8:	e0bffe17 	ldw	r2,-8(fp)
  2815dc:	1090000c 	andi	r2,r2,16384
  2815e0:	1004c03a 	cmpne	r2,r2,zero
  2815e4:	1000101e 	bne	r2,zero,281628 <altera_avalon_jtag_uart_write+0x1e4>
  2815e8:	e0bffb17 	ldw	r2,-20(fp)
  2815ec:	10c00d17 	ldw	r3,52(r2)
  2815f0:	e0bff917 	ldw	r2,-28(fp)
  2815f4:	1880051e 	bne	r3,r2,28160c <altera_avalon_jtag_uart_write+0x1c8>
  2815f8:	e0bffb17 	ldw	r2,-20(fp)
  2815fc:	10c00917 	ldw	r3,36(r2)
  281600:	e0bffb17 	ldw	r2,-20(fp)
  281604:	10800117 	ldw	r2,4(r2)
  281608:	18bff736 	bltu	r3,r2,2815e8 <altera_avalon_jtag_uart_write+0x1a4>
  28160c:	e0bffb17 	ldw	r2,-20(fp)
  281610:	10c00d17 	ldw	r3,52(r2)
  281614:	e0bff917 	ldw	r2,-28(fp)
  281618:	18800326 	beq	r3,r2,281628 <altera_avalon_jtag_uart_write+0x1e4>
  28161c:	e0bffd17 	ldw	r2,-12(fp)
  281620:	10800048 	cmpgei	r2,r2,1
  281624:	103fcd1e 	bne	r2,zero,28155c <altera_avalon_jtag_uart_write+0x118>
  281628:	e0fffc17 	ldw	r3,-16(fp)
  28162c:	e0bff617 	ldw	r2,-40(fp)
  281630:	18800526 	beq	r3,r2,281648 <altera_avalon_jtag_uart_write+0x204>
  281634:	e0fffc17 	ldw	r3,-16(fp)
  281638:	e0bff617 	ldw	r2,-40(fp)
  28163c:	1887c83a 	sub	r3,r3,r2
  281640:	e0ffff15 	stw	r3,-4(fp)
  281644:	00000906 	br	28166c <altera_avalon_jtag_uart_write+0x228>
  281648:	e0bffe17 	ldw	r2,-8(fp)
  28164c:	1090000c 	andi	r2,r2,16384
  281650:	1005003a 	cmpeq	r2,r2,zero
  281654:	1000031e 	bne	r2,zero,281664 <altera_avalon_jtag_uart_write+0x220>
  281658:	00bffd44 	movi	r2,-11
  28165c:	e0bfff15 	stw	r2,-4(fp)
  281660:	00000206 	br	28166c <altera_avalon_jtag_uart_write+0x228>
  281664:	00bffec4 	movi	r2,-5
  281668:	e0bfff15 	stw	r2,-4(fp)
  28166c:	e0bfff17 	ldw	r2,-4(fp)
  281670:	e037883a 	mov	sp,fp
  281674:	dfc00117 	ldw	ra,4(sp)
  281678:	df000017 	ldw	fp,0(sp)
  28167c:	dec00204 	addi	sp,sp,8
  281680:	f800283a 	ret

00281684 <lcd_write_command>:
  281684:	defffa04 	addi	sp,sp,-24
  281688:	dfc00515 	stw	ra,20(sp)
  28168c:	df000415 	stw	fp,16(sp)
  281690:	df000404 	addi	fp,sp,16
  281694:	e13ffe15 	stw	r4,-8(fp)
  281698:	e17fff05 	stb	r5,-4(fp)
  28169c:	e0bffe17 	ldw	r2,-8(fp)
  2816a0:	10800017 	ldw	r2,0(r2)
  2816a4:	e0bffd15 	stw	r2,-12(fp)
  2816a8:	008003f4 	movhi	r2,15
  2816ac:	10909004 	addi	r2,r2,16960
  2816b0:	e0bffc15 	stw	r2,-16(fp)
  2816b4:	e0bffe17 	ldw	r2,-8(fp)
  2816b8:	10800803 	ldbu	r2,32(r2)
  2816bc:	10803fcc 	andi	r2,r2,255
  2816c0:	1080201c 	xori	r2,r2,128
  2816c4:	10bfe004 	addi	r2,r2,-128
  2816c8:	1004c03a 	cmpne	r2,r2,zero
  2816cc:	1000161e 	bne	r2,zero,281728 <lcd_write_command+0xa4>
  2816d0:	00000a06 	br	2816fc <lcd_write_command+0x78>
  2816d4:	e0bffc17 	ldw	r2,-16(fp)
  2816d8:	10bfffc4 	addi	r2,r2,-1
  2816dc:	e0bffc15 	stw	r2,-16(fp)
  2816e0:	e0bffc17 	ldw	r2,-16(fp)
  2816e4:	1004c03a 	cmpne	r2,r2,zero
  2816e8:	1000041e 	bne	r2,zero,2816fc <lcd_write_command+0x78>
  2816ec:	e0fffe17 	ldw	r3,-8(fp)
  2816f0:	00800044 	movi	r2,1
  2816f4:	18800805 	stb	r2,32(r3)
  2816f8:	00000b06 	br	281728 <lcd_write_command+0xa4>
  2816fc:	e0bffd17 	ldw	r2,-12(fp)
  281700:	10800104 	addi	r2,r2,4
  281704:	10800037 	ldwio	r2,0(r2)
  281708:	1080200c 	andi	r2,r2,128
  28170c:	1004c03a 	cmpne	r2,r2,zero
  281710:	103ff01e 	bne	r2,zero,2816d4 <lcd_write_command+0x50>
  281714:	01001904 	movi	r4,100
  281718:	02808e80 	call	2808e8 <usleep>
  28171c:	e0bffd17 	ldw	r2,-12(fp)
  281720:	e0ffff03 	ldbu	r3,-4(fp)
  281724:	10c00035 	stwio	r3,0(r2)
  281728:	e037883a 	mov	sp,fp
  28172c:	dfc00117 	ldw	ra,4(sp)
  281730:	df000017 	ldw	fp,0(sp)
  281734:	dec00204 	addi	sp,sp,8
  281738:	f800283a 	ret

0028173c <lcd_write_data>:
  28173c:	defffa04 	addi	sp,sp,-24
  281740:	dfc00515 	stw	ra,20(sp)
  281744:	df000415 	stw	fp,16(sp)
  281748:	df000404 	addi	fp,sp,16
  28174c:	e13ffe15 	stw	r4,-8(fp)
  281750:	e17fff05 	stb	r5,-4(fp)
  281754:	e0bffe17 	ldw	r2,-8(fp)
  281758:	10800017 	ldw	r2,0(r2)
  28175c:	e0bffd15 	stw	r2,-12(fp)
  281760:	008003f4 	movhi	r2,15
  281764:	10909004 	addi	r2,r2,16960
  281768:	e0bffc15 	stw	r2,-16(fp)
  28176c:	e0bffe17 	ldw	r2,-8(fp)
  281770:	10800803 	ldbu	r2,32(r2)
  281774:	10803fcc 	andi	r2,r2,255
  281778:	1080201c 	xori	r2,r2,128
  28177c:	10bfe004 	addi	r2,r2,-128
  281780:	1004c03a 	cmpne	r2,r2,zero
  281784:	10001d1e 	bne	r2,zero,2817fc <lcd_write_data+0xc0>
  281788:	00000a06 	br	2817b4 <lcd_write_data+0x78>
  28178c:	e0bffc17 	ldw	r2,-16(fp)
  281790:	10bfffc4 	addi	r2,r2,-1
  281794:	e0bffc15 	stw	r2,-16(fp)
  281798:	e0bffc17 	ldw	r2,-16(fp)
  28179c:	1004c03a 	cmpne	r2,r2,zero
  2817a0:	1000041e 	bne	r2,zero,2817b4 <lcd_write_data+0x78>
  2817a4:	e0fffe17 	ldw	r3,-8(fp)
  2817a8:	00800044 	movi	r2,1
  2817ac:	18800805 	stb	r2,32(r3)
  2817b0:	00001206 	br	2817fc <lcd_write_data+0xc0>
  2817b4:	e0bffd17 	ldw	r2,-12(fp)
  2817b8:	10800104 	addi	r2,r2,4
  2817bc:	10800037 	ldwio	r2,0(r2)
  2817c0:	1080200c 	andi	r2,r2,128
  2817c4:	1004c03a 	cmpne	r2,r2,zero
  2817c8:	103ff01e 	bne	r2,zero,28178c <lcd_write_data+0x50>
  2817cc:	01001904 	movi	r4,100
  2817d0:	02808e80 	call	2808e8 <usleep>
  2817d4:	e0bffd17 	ldw	r2,-12(fp)
  2817d8:	10800204 	addi	r2,r2,8
  2817dc:	e0ffff03 	ldbu	r3,-4(fp)
  2817e0:	10c00035 	stwio	r3,0(r2)
  2817e4:	e0bffe17 	ldw	r2,-8(fp)
  2817e8:	108008c3 	ldbu	r2,35(r2)
  2817ec:	10800044 	addi	r2,r2,1
  2817f0:	1007883a 	mov	r3,r2
  2817f4:	e0bffe17 	ldw	r2,-8(fp)
  2817f8:	10c008c5 	stb	r3,35(r2)
  2817fc:	e037883a 	mov	sp,fp
  281800:	dfc00117 	ldw	ra,4(sp)
  281804:	df000017 	ldw	fp,0(sp)
  281808:	dec00204 	addi	sp,sp,8
  28180c:	f800283a 	ret

00281810 <lcd_clear_screen>:
  281810:	defffc04 	addi	sp,sp,-16
  281814:	dfc00315 	stw	ra,12(sp)
  281818:	df000215 	stw	fp,8(sp)
  28181c:	df000204 	addi	fp,sp,8
  281820:	e13fff15 	stw	r4,-4(fp)
  281824:	e13fff17 	ldw	r4,-4(fp)
  281828:	01400044 	movi	r5,1
  28182c:	02816840 	call	281684 <lcd_write_command>
  281830:	e0bfff17 	ldw	r2,-4(fp)
  281834:	10000845 	stb	zero,33(r2)
  281838:	e0bfff17 	ldw	r2,-4(fp)
  28183c:	10000885 	stb	zero,34(r2)
  281840:	e0bfff17 	ldw	r2,-4(fp)
  281844:	100008c5 	stb	zero,35(r2)
  281848:	e03ffe15 	stw	zero,-8(fp)
  28184c:	00001906 	br	2818b4 <lcd_clear_screen+0xa4>
  281850:	e0bffe17 	ldw	r2,-8(fp)
  281854:	108018e4 	muli	r2,r2,99
  281858:	10c01004 	addi	r3,r2,64
  28185c:	e0bfff17 	ldw	r2,-4(fp)
  281860:	1889883a 	add	r4,r3,r2
  281864:	01400804 	movi	r5,32
  281868:	01801444 	movi	r6,81
  28186c:	02839880 	call	283988 <memset>
  281870:	e0bffe17 	ldw	r2,-8(fp)
  281874:	108018e4 	muli	r2,r2,99
  281878:	10c00c04 	addi	r3,r2,48
  28187c:	e0bfff17 	ldw	r2,-4(fp)
  281880:	1889883a 	add	r4,r3,r2
  281884:	01400804 	movi	r5,32
  281888:	01800404 	movi	r6,16
  28188c:	02839880 	call	283988 <memset>
  281890:	e0bffe17 	ldw	r2,-8(fp)
  281894:	e0ffff17 	ldw	r3,-4(fp)
  281898:	108018e4 	muli	r2,r2,99
  28189c:	10c5883a 	add	r2,r2,r3
  2818a0:	10802404 	addi	r2,r2,144
  2818a4:	10000045 	stb	zero,1(r2)
  2818a8:	e0bffe17 	ldw	r2,-8(fp)
  2818ac:	10800044 	addi	r2,r2,1
  2818b0:	e0bffe15 	stw	r2,-8(fp)
  2818b4:	e0bffe17 	ldw	r2,-8(fp)
  2818b8:	10800090 	cmplti	r2,r2,2
  2818bc:	103fe41e 	bne	r2,zero,281850 <lcd_clear_screen+0x40>
  2818c0:	e037883a 	mov	sp,fp
  2818c4:	dfc00117 	ldw	ra,4(sp)
  2818c8:	df000017 	ldw	fp,0(sp)
  2818cc:	dec00204 	addi	sp,sp,8
  2818d0:	f800283a 	ret

002818d4 <lcd_repaint_screen>:
  2818d4:	defff604 	addi	sp,sp,-40
  2818d8:	dfc00915 	stw	ra,36(sp)
  2818dc:	df000815 	stw	fp,32(sp)
  2818e0:	dc000715 	stw	r16,28(sp)
  2818e4:	df000704 	addi	fp,sp,28
  2818e8:	e13fff15 	stw	r4,-4(fp)
  2818ec:	e0bfff17 	ldw	r2,-4(fp)
  2818f0:	10800943 	ldbu	r2,37(r2)
  2818f4:	10803fcc 	andi	r2,r2,255
  2818f8:	1080201c 	xori	r2,r2,128
  2818fc:	10bfe004 	addi	r2,r2,-128
  281900:	e0bffc15 	stw	r2,-16(fp)
  281904:	e03ffe15 	stw	zero,-8(fp)
  281908:	00006406 	br	281a9c <lcd_repaint_screen+0x1c8>
  28190c:	e0bffe17 	ldw	r2,-8(fp)
  281910:	e0ffff17 	ldw	r3,-4(fp)
  281914:	108018e4 	muli	r2,r2,99
  281918:	10c5883a 	add	r2,r2,r3
  28191c:	10802404 	addi	r2,r2,144
  281920:	10800043 	ldbu	r2,1(r2)
  281924:	10803fcc 	andi	r2,r2,255
  281928:	1080201c 	xori	r2,r2,128
  28192c:	10bfe004 	addi	r2,r2,-128
  281930:	e0bffb15 	stw	r2,-20(fp)
  281934:	e0bffe17 	ldw	r2,-8(fp)
  281938:	e0ffff17 	ldw	r3,-4(fp)
  28193c:	108018e4 	muli	r2,r2,99
  281940:	10c5883a 	add	r2,r2,r3
  281944:	10802404 	addi	r2,r2,144
  281948:	10800083 	ldbu	r2,2(r2)
  28194c:	10c03fcc 	andi	r3,r2,255
  281950:	e0bffc17 	ldw	r2,-16(fp)
  281954:	1885383a 	mul	r2,r3,r2
  281958:	1005d23a 	srai	r2,r2,8
  28195c:	e0bffa15 	stw	r2,-24(fp)
  281960:	e0fffa17 	ldw	r3,-24(fp)
  281964:	e0bffb17 	ldw	r2,-20(fp)
  281968:	18800116 	blt	r3,r2,281970 <lcd_repaint_screen+0x9c>
  28196c:	e03ffa15 	stw	zero,-24(fp)
  281970:	e03ffd15 	stw	zero,-12(fp)
  281974:	00004306 	br	281a84 <lcd_repaint_screen+0x1b0>
  281978:	e43ffe17 	ldw	r16,-8(fp)
  28197c:	e0fffd17 	ldw	r3,-12(fp)
  281980:	e0bffa17 	ldw	r2,-24(fp)
  281984:	1889883a 	add	r4,r3,r2
  281988:	e17ffb17 	ldw	r5,-20(fp)
  28198c:	0283e580 	call	283e58 <__modsi3>
  281990:	1009883a 	mov	r4,r2
  281994:	e0ffff17 	ldw	r3,-4(fp)
  281998:	808018e4 	muli	r2,r16,99
  28199c:	10c5883a 	add	r2,r2,r3
  2819a0:	1105883a 	add	r2,r2,r4
  2819a4:	10801004 	addi	r2,r2,64
  2819a8:	10800003 	ldbu	r2,0(r2)
  2819ac:	e0bff945 	stb	r2,-27(fp)
  2819b0:	e0bffe17 	ldw	r2,-8(fp)
  2819b4:	e13ffd17 	ldw	r4,-12(fp)
  2819b8:	e0ffff17 	ldw	r3,-4(fp)
  2819bc:	108018e4 	muli	r2,r2,99
  2819c0:	10c5883a 	add	r2,r2,r3
  2819c4:	1105883a 	add	r2,r2,r4
  2819c8:	10800c04 	addi	r2,r2,48
  2819cc:	10800003 	ldbu	r2,0(r2)
  2819d0:	10c03fcc 	andi	r3,r2,255
  2819d4:	18c0201c 	xori	r3,r3,128
  2819d8:	18ffe004 	addi	r3,r3,-128
  2819dc:	e0bff947 	ldb	r2,-27(fp)
  2819e0:	18802526 	beq	r3,r2,281a78 <lcd_repaint_screen+0x1a4>
  2819e4:	e0fffe17 	ldw	r3,-8(fp)
  2819e8:	d0a00004 	addi	r2,gp,-32768
  2819ec:	1885883a 	add	r2,r3,r2
  2819f0:	10800003 	ldbu	r2,0(r2)
  2819f4:	1007883a 	mov	r3,r2
  2819f8:	e0bffd17 	ldw	r2,-12(fp)
  2819fc:	1885883a 	add	r2,r3,r2
  281a00:	e0bff905 	stb	r2,-28(fp)
  281a04:	e0fff903 	ldbu	r3,-28(fp)
  281a08:	e0bfff17 	ldw	r2,-4(fp)
  281a0c:	108008c3 	ldbu	r2,35(r2)
  281a10:	10803fcc 	andi	r2,r2,255
  281a14:	1080201c 	xori	r2,r2,128
  281a18:	10bfe004 	addi	r2,r2,-128
  281a1c:	18800926 	beq	r3,r2,281a44 <lcd_repaint_screen+0x170>
  281a20:	e0fff903 	ldbu	r3,-28(fp)
  281a24:	00bfe004 	movi	r2,-128
  281a28:	1884b03a 	or	r2,r3,r2
  281a2c:	11403fcc 	andi	r5,r2,255
  281a30:	e13fff17 	ldw	r4,-4(fp)
  281a34:	02816840 	call	281684 <lcd_write_command>
  281a38:	e0fff903 	ldbu	r3,-28(fp)
  281a3c:	e0bfff17 	ldw	r2,-4(fp)
  281a40:	10c008c5 	stb	r3,35(r2)
  281a44:	e0bff943 	ldbu	r2,-27(fp)
  281a48:	11403fcc 	andi	r5,r2,255
  281a4c:	e13fff17 	ldw	r4,-4(fp)
  281a50:	028173c0 	call	28173c <lcd_write_data>
  281a54:	e0bffe17 	ldw	r2,-8(fp)
  281a58:	e13ffd17 	ldw	r4,-12(fp)
  281a5c:	e0ffff17 	ldw	r3,-4(fp)
  281a60:	108018e4 	muli	r2,r2,99
  281a64:	10c5883a 	add	r2,r2,r3
  281a68:	1105883a 	add	r2,r2,r4
  281a6c:	10c00c04 	addi	r3,r2,48
  281a70:	e0bff943 	ldbu	r2,-27(fp)
  281a74:	18800005 	stb	r2,0(r3)
  281a78:	e0bffd17 	ldw	r2,-12(fp)
  281a7c:	10800044 	addi	r2,r2,1
  281a80:	e0bffd15 	stw	r2,-12(fp)
  281a84:	e0bffd17 	ldw	r2,-12(fp)
  281a88:	10800410 	cmplti	r2,r2,16
  281a8c:	103fba1e 	bne	r2,zero,281978 <lcd_repaint_screen+0xa4>
  281a90:	e0bffe17 	ldw	r2,-8(fp)
  281a94:	10800044 	addi	r2,r2,1
  281a98:	e0bffe15 	stw	r2,-8(fp)
  281a9c:	e0bffe17 	ldw	r2,-8(fp)
  281aa0:	10800090 	cmplti	r2,r2,2
  281aa4:	103f991e 	bne	r2,zero,28190c <lcd_repaint_screen+0x38>
  281aa8:	e037883a 	mov	sp,fp
  281aac:	dfc00217 	ldw	ra,8(sp)
  281ab0:	df000117 	ldw	fp,4(sp)
  281ab4:	dc000017 	ldw	r16,0(sp)
  281ab8:	dec00304 	addi	sp,sp,12
  281abc:	f800283a 	ret

00281ac0 <lcd_scroll_up>:
  281ac0:	defffc04 	addi	sp,sp,-16
  281ac4:	dfc00315 	stw	ra,12(sp)
  281ac8:	df000215 	stw	fp,8(sp)
  281acc:	df000204 	addi	fp,sp,8
  281ad0:	e13fff15 	stw	r4,-4(fp)
  281ad4:	e03ffe15 	stw	zero,-8(fp)
  281ad8:	00001d06 	br	281b50 <lcd_scroll_up+0x90>
  281adc:	e0bffe17 	ldw	r2,-8(fp)
  281ae0:	10800048 	cmpgei	r2,r2,1
  281ae4:	10000f1e 	bne	r2,zero,281b24 <lcd_scroll_up+0x64>
  281ae8:	e0bffe17 	ldw	r2,-8(fp)
  281aec:	108018e4 	muli	r2,r2,99
  281af0:	10c01004 	addi	r3,r2,64
  281af4:	e0bfff17 	ldw	r2,-4(fp)
  281af8:	1889883a 	add	r4,r3,r2
  281afc:	e0bffe17 	ldw	r2,-8(fp)
  281b00:	10800044 	addi	r2,r2,1
  281b04:	108018e4 	muli	r2,r2,99
  281b08:	10c01004 	addi	r3,r2,64
  281b0c:	e0bfff17 	ldw	r2,-4(fp)
  281b10:	1885883a 	add	r2,r3,r2
  281b14:	100b883a 	mov	r5,r2
  281b18:	01801404 	movi	r6,80
  281b1c:	02838e80 	call	2838e8 <memcpy>
  281b20:	00000806 	br	281b44 <lcd_scroll_up+0x84>
  281b24:	e0bffe17 	ldw	r2,-8(fp)
  281b28:	108018e4 	muli	r2,r2,99
  281b2c:	10c01004 	addi	r3,r2,64
  281b30:	e0bfff17 	ldw	r2,-4(fp)
  281b34:	1889883a 	add	r4,r3,r2
  281b38:	01400804 	movi	r5,32
  281b3c:	01801404 	movi	r6,80
  281b40:	02839880 	call	283988 <memset>
  281b44:	e0bffe17 	ldw	r2,-8(fp)
  281b48:	10800044 	addi	r2,r2,1
  281b4c:	e0bffe15 	stw	r2,-8(fp)
  281b50:	e0bffe17 	ldw	r2,-8(fp)
  281b54:	10800090 	cmplti	r2,r2,2
  281b58:	103fe01e 	bne	r2,zero,281adc <lcd_scroll_up+0x1c>
  281b5c:	e0bfff17 	ldw	r2,-4(fp)
  281b60:	10800883 	ldbu	r2,34(r2)
  281b64:	10bfffc4 	addi	r2,r2,-1
  281b68:	1007883a 	mov	r3,r2
  281b6c:	e0bfff17 	ldw	r2,-4(fp)
  281b70:	10c00885 	stb	r3,34(r2)
  281b74:	e037883a 	mov	sp,fp
  281b78:	dfc00117 	ldw	ra,4(sp)
  281b7c:	df000017 	ldw	fp,0(sp)
  281b80:	dec00204 	addi	sp,sp,8
  281b84:	f800283a 	ret

00281b88 <lcd_handle_escape>:
  281b88:	defff804 	addi	sp,sp,-32
  281b8c:	dfc00715 	stw	ra,28(sp)
  281b90:	df000615 	stw	fp,24(sp)
  281b94:	df000604 	addi	fp,sp,24
  281b98:	e13ffd15 	stw	r4,-12(fp)
  281b9c:	e17ffe05 	stb	r5,-8(fp)
  281ba0:	e03ffc15 	stw	zero,-16(fp)
  281ba4:	e03ffb15 	stw	zero,-20(fp)
  281ba8:	e0bffd17 	ldw	r2,-12(fp)
  281bac:	10800a03 	ldbu	r2,40(r2)
  281bb0:	10803fcc 	andi	r2,r2,255
  281bb4:	1080201c 	xori	r2,r2,128
  281bb8:	10bfe004 	addi	r2,r2,-128
  281bbc:	108016d8 	cmpnei	r2,r2,91
  281bc0:	1000491e 	bne	r2,zero,281ce8 <lcd_handle_escape+0x160>
  281bc4:	e0bffd17 	ldw	r2,-12(fp)
  281bc8:	10800a04 	addi	r2,r2,40
  281bcc:	10800044 	addi	r2,r2,1
  281bd0:	e0bffa15 	stw	r2,-24(fp)
  281bd4:	00000d06 	br	281c0c <lcd_handle_escape+0x84>
  281bd8:	e0bffc17 	ldw	r2,-16(fp)
  281bdc:	10c002a4 	muli	r3,r2,10
  281be0:	e0bffa17 	ldw	r2,-24(fp)
  281be4:	10800003 	ldbu	r2,0(r2)
  281be8:	10803fcc 	andi	r2,r2,255
  281bec:	1080201c 	xori	r2,r2,128
  281bf0:	10bfe004 	addi	r2,r2,-128
  281bf4:	1885883a 	add	r2,r3,r2
  281bf8:	10bff404 	addi	r2,r2,-48
  281bfc:	e0bffc15 	stw	r2,-16(fp)
  281c00:	e0bffa17 	ldw	r2,-24(fp)
  281c04:	10800044 	addi	r2,r2,1
  281c08:	e0bffa15 	stw	r2,-24(fp)
  281c0c:	e0bffa17 	ldw	r2,-24(fp)
  281c10:	10800003 	ldbu	r2,0(r2)
  281c14:	10803fcc 	andi	r2,r2,255
  281c18:	1080201c 	xori	r2,r2,128
  281c1c:	10bfe004 	addi	r2,r2,-128
  281c20:	1007883a 	mov	r3,r2
  281c24:	00800a34 	movhi	r2,40
  281c28:	10966d04 	addi	r2,r2,22964
  281c2c:	10800017 	ldw	r2,0(r2)
  281c30:	1885883a 	add	r2,r3,r2
  281c34:	10800003 	ldbu	r2,0(r2)
  281c38:	10803fcc 	andi	r2,r2,255
  281c3c:	1080010c 	andi	r2,r2,4
  281c40:	1004c03a 	cmpne	r2,r2,zero
  281c44:	103fe41e 	bne	r2,zero,281bd8 <lcd_handle_escape+0x50>
  281c48:	e0bffa17 	ldw	r2,-24(fp)
  281c4c:	10800003 	ldbu	r2,0(r2)
  281c50:	10803fcc 	andi	r2,r2,255
  281c54:	1080201c 	xori	r2,r2,128
  281c58:	10bfe004 	addi	r2,r2,-128
  281c5c:	10800ed8 	cmpnei	r2,r2,59
  281c60:	1000231e 	bne	r2,zero,281cf0 <lcd_handle_escape+0x168>
  281c64:	e0bffa17 	ldw	r2,-24(fp)
  281c68:	10800044 	addi	r2,r2,1
  281c6c:	e0bffa15 	stw	r2,-24(fp)
  281c70:	00000d06 	br	281ca8 <lcd_handle_escape+0x120>
  281c74:	e0bffb17 	ldw	r2,-20(fp)
  281c78:	10c002a4 	muli	r3,r2,10
  281c7c:	e0bffa17 	ldw	r2,-24(fp)
  281c80:	10800003 	ldbu	r2,0(r2)
  281c84:	10803fcc 	andi	r2,r2,255
  281c88:	1080201c 	xori	r2,r2,128
  281c8c:	10bfe004 	addi	r2,r2,-128
  281c90:	1885883a 	add	r2,r3,r2
  281c94:	10bff404 	addi	r2,r2,-48
  281c98:	e0bffb15 	stw	r2,-20(fp)
  281c9c:	e0bffa17 	ldw	r2,-24(fp)
  281ca0:	10800044 	addi	r2,r2,1
  281ca4:	e0bffa15 	stw	r2,-24(fp)
  281ca8:	e0bffa17 	ldw	r2,-24(fp)
  281cac:	10800003 	ldbu	r2,0(r2)
  281cb0:	10803fcc 	andi	r2,r2,255
  281cb4:	1080201c 	xori	r2,r2,128
  281cb8:	10bfe004 	addi	r2,r2,-128
  281cbc:	1007883a 	mov	r3,r2
  281cc0:	00800a34 	movhi	r2,40
  281cc4:	10966d04 	addi	r2,r2,22964
  281cc8:	10800017 	ldw	r2,0(r2)
  281ccc:	1885883a 	add	r2,r3,r2
  281cd0:	10800003 	ldbu	r2,0(r2)
  281cd4:	10803fcc 	andi	r2,r2,255
  281cd8:	1080010c 	andi	r2,r2,4
  281cdc:	1004c03a 	cmpne	r2,r2,zero
  281ce0:	103fe41e 	bne	r2,zero,281c74 <lcd_handle_escape+0xec>
  281ce4:	00000206 	br	281cf0 <lcd_handle_escape+0x168>
  281ce8:	00bfffc4 	movi	r2,-1
  281cec:	e0bffc15 	stw	r2,-16(fp)
  281cf0:	e0bffe07 	ldb	r2,-8(fp)
  281cf4:	e0bfff15 	stw	r2,-4(fp)
  281cf8:	e0ffff17 	ldw	r3,-4(fp)
  281cfc:	188012a0 	cmpeqi	r2,r3,74
  281d00:	10002f1e 	bne	r2,zero,281dc0 <lcd_handle_escape+0x238>
  281d04:	e0ffff17 	ldw	r3,-4(fp)
  281d08:	188012c8 	cmpgei	r2,r3,75
  281d0c:	1000041e 	bne	r2,zero,281d20 <lcd_handle_escape+0x198>
  281d10:	e0ffff17 	ldw	r3,-4(fp)
  281d14:	18801220 	cmpeqi	r2,r3,72
  281d18:	1000081e 	bne	r2,zero,281d3c <lcd_handle_escape+0x1b4>
  281d1c:	00004906 	br	281e44 <lcd_handle_escape+0x2bc>
  281d20:	e0ffff17 	ldw	r3,-4(fp)
  281d24:	188012e0 	cmpeqi	r2,r3,75
  281d28:	10002b1e 	bne	r2,zero,281dd8 <lcd_handle_escape+0x250>
  281d2c:	e0ffff17 	ldw	r3,-4(fp)
  281d30:	188019a0 	cmpeqi	r2,r3,102
  281d34:	1000011e 	bne	r2,zero,281d3c <lcd_handle_escape+0x1b4>
  281d38:	00004206 	br	281e44 <lcd_handle_escape+0x2bc>
  281d3c:	e0bffb17 	ldw	r2,-20(fp)
  281d40:	10800050 	cmplti	r2,r2,1
  281d44:	1000051e 	bne	r2,zero,281d5c <lcd_handle_escape+0x1d4>
  281d48:	e0bffb17 	ldw	r2,-20(fp)
  281d4c:	10bfffc4 	addi	r2,r2,-1
  281d50:	1007883a 	mov	r3,r2
  281d54:	e0bffd17 	ldw	r2,-12(fp)
  281d58:	10c00845 	stb	r3,33(r2)
  281d5c:	e0bffc17 	ldw	r2,-16(fp)
  281d60:	10800050 	cmplti	r2,r2,1
  281d64:	1000371e 	bne	r2,zero,281e44 <lcd_handle_escape+0x2bc>
  281d68:	e0bffc17 	ldw	r2,-16(fp)
  281d6c:	10bfffc4 	addi	r2,r2,-1
  281d70:	1007883a 	mov	r3,r2
  281d74:	e0bffd17 	ldw	r2,-12(fp)
  281d78:	10c00885 	stb	r3,34(r2)
  281d7c:	e0bffd17 	ldw	r2,-12(fp)
  281d80:	10800883 	ldbu	r2,34(r2)
  281d84:	10803fcc 	andi	r2,r2,255
  281d88:	10800170 	cmpltui	r2,r2,5
  281d8c:	1000061e 	bne	r2,zero,281da8 <lcd_handle_escape+0x220>
  281d90:	e0fffd17 	ldw	r3,-12(fp)
  281d94:	00800104 	movi	r2,4
  281d98:	18800885 	stb	r2,34(r3)
  281d9c:	00000206 	br	281da8 <lcd_handle_escape+0x220>
  281da0:	e13ffd17 	ldw	r4,-12(fp)
  281da4:	0281ac00 	call	281ac0 <lcd_scroll_up>
  281da8:	e0bffd17 	ldw	r2,-12(fp)
  281dac:	10800883 	ldbu	r2,34(r2)
  281db0:	10803fcc 	andi	r2,r2,255
  281db4:	108000e8 	cmpgeui	r2,r2,3
  281db8:	103ff91e 	bne	r2,zero,281da0 <lcd_handle_escape+0x218>
  281dbc:	00002106 	br	281e44 <lcd_handle_escape+0x2bc>
  281dc0:	e0bffc17 	ldw	r2,-16(fp)
  281dc4:	10800098 	cmpnei	r2,r2,2
  281dc8:	10001e1e 	bne	r2,zero,281e44 <lcd_handle_escape+0x2bc>
  281dcc:	e13ffd17 	ldw	r4,-12(fp)
  281dd0:	02818100 	call	281810 <lcd_clear_screen>
  281dd4:	00001b06 	br	281e44 <lcd_handle_escape+0x2bc>
  281dd8:	e0bffc17 	ldw	r2,-16(fp)
  281ddc:	10800048 	cmpgei	r2,r2,1
  281de0:	1000181e 	bne	r2,zero,281e44 <lcd_handle_escape+0x2bc>
  281de4:	e0bffd17 	ldw	r2,-12(fp)
  281de8:	10800843 	ldbu	r2,33(r2)
  281dec:	10803fcc 	andi	r2,r2,255
  281df0:	10801428 	cmpgeui	r2,r2,80
  281df4:	1000131e 	bne	r2,zero,281e44 <lcd_handle_escape+0x2bc>
  281df8:	e0bffd17 	ldw	r2,-12(fp)
  281dfc:	10800883 	ldbu	r2,34(r2)
  281e00:	10803fcc 	andi	r2,r2,255
  281e04:	108018e4 	muli	r2,r2,99
  281e08:	10c01004 	addi	r3,r2,64
  281e0c:	e0bffd17 	ldw	r2,-12(fp)
  281e10:	1887883a 	add	r3,r3,r2
  281e14:	e0bffd17 	ldw	r2,-12(fp)
  281e18:	10800843 	ldbu	r2,33(r2)
  281e1c:	10803fcc 	andi	r2,r2,255
  281e20:	1889883a 	add	r4,r3,r2
  281e24:	e0bffd17 	ldw	r2,-12(fp)
  281e28:	10800843 	ldbu	r2,33(r2)
  281e2c:	10c03fcc 	andi	r3,r2,255
  281e30:	00801404 	movi	r2,80
  281e34:	10c5c83a 	sub	r2,r2,r3
  281e38:	100d883a 	mov	r6,r2
  281e3c:	01400804 	movi	r5,32
  281e40:	02839880 	call	283988 <memset>
  281e44:	e037883a 	mov	sp,fp
  281e48:	dfc00117 	ldw	ra,4(sp)
  281e4c:	df000017 	ldw	fp,0(sp)
  281e50:	dec00204 	addi	sp,sp,8
  281e54:	f800283a 	ret

00281e58 <altera_avalon_lcd_16207_write>:
  281e58:	defff204 	addi	sp,sp,-56
  281e5c:	dfc00d15 	stw	ra,52(sp)
  281e60:	df000c15 	stw	fp,48(sp)
  281e64:	dc000b15 	stw	r16,44(sp)
  281e68:	df000b04 	addi	fp,sp,44
  281e6c:	e13ffc15 	stw	r4,-16(fp)
  281e70:	e17ffd15 	stw	r5,-12(fp)
  281e74:	e1bffe15 	stw	r6,-8(fp)
  281e78:	e1ffff15 	stw	r7,-4(fp)
  281e7c:	e0bffe17 	ldw	r2,-8(fp)
  281e80:	1007883a 	mov	r3,r2
  281e84:	e0bffd17 	ldw	r2,-12(fp)
  281e88:	10c5883a 	add	r2,r2,r3
  281e8c:	e0bffb15 	stw	r2,-20(fp)
  281e90:	e0fffc17 	ldw	r3,-16(fp)
  281e94:	00800044 	movi	r2,1
  281e98:	188009c5 	stb	r2,39(r3)
  281e9c:	0000a206 	br	282128 <altera_avalon_lcd_16207_write+0x2d0>
  281ea0:	e0bffd17 	ldw	r2,-12(fp)
  281ea4:	10800003 	ldbu	r2,0(r2)
  281ea8:	e0bff805 	stb	r2,-32(fp)
  281eac:	e0bffc17 	ldw	r2,-16(fp)
  281eb0:	10800903 	ldbu	r2,36(r2)
  281eb4:	10803fcc 	andi	r2,r2,255
  281eb8:	1080201c 	xori	r2,r2,128
  281ebc:	10bfe004 	addi	r2,r2,-128
  281ec0:	1004803a 	cmplt	r2,r2,zero
  281ec4:	10003b1e 	bne	r2,zero,281fb4 <altera_avalon_lcd_16207_write+0x15c>
  281ec8:	e0bffc17 	ldw	r2,-16(fp)
  281ecc:	10800903 	ldbu	r2,36(r2)
  281ed0:	10803fcc 	andi	r2,r2,255
  281ed4:	1080201c 	xori	r2,r2,128
  281ed8:	10bfe004 	addi	r2,r2,-128
  281edc:	e0bff715 	stw	r2,-36(fp)
  281ee0:	e0bff717 	ldw	r2,-36(fp)
  281ee4:	1004c03a 	cmpne	r2,r2,zero
  281ee8:	1000031e 	bne	r2,zero,281ef8 <altera_avalon_lcd_16207_write+0xa0>
  281eec:	e0bff807 	ldb	r2,-32(fp)
  281ef0:	108016d8 	cmpnei	r2,r2,91
  281ef4:	1000111e 	bne	r2,zero,281f3c <altera_avalon_lcd_16207_write+0xe4>
  281ef8:	e0bff717 	ldw	r2,-36(fp)
  281efc:	1005003a 	cmpeq	r2,r2,zero
  281f00:	10001a1e 	bne	r2,zero,281f6c <altera_avalon_lcd_16207_write+0x114>
  281f04:	e0bff807 	ldb	r2,-32(fp)
  281f08:	1007883a 	mov	r3,r2
  281f0c:	00800a34 	movhi	r2,40
  281f10:	10966d04 	addi	r2,r2,22964
  281f14:	10800017 	ldw	r2,0(r2)
  281f18:	1885883a 	add	r2,r3,r2
  281f1c:	10800003 	ldbu	r2,0(r2)
  281f20:	10803fcc 	andi	r2,r2,255
  281f24:	1080010c 	andi	r2,r2,4
  281f28:	1004c03a 	cmpne	r2,r2,zero
  281f2c:	10000f1e 	bne	r2,zero,281f6c <altera_avalon_lcd_16207_write+0x114>
  281f30:	e0bff807 	ldb	r2,-32(fp)
  281f34:	10800ee0 	cmpeqi	r2,r2,59
  281f38:	10000c1e 	bne	r2,zero,281f6c <altera_avalon_lcd_16207_write+0x114>
  281f3c:	e0fff717 	ldw	r3,-36(fp)
  281f40:	e0bffc17 	ldw	r2,-16(fp)
  281f44:	1885883a 	add	r2,r3,r2
  281f48:	10800a04 	addi	r2,r2,40
  281f4c:	10000005 	stb	zero,0(r2)
  281f50:	e17ff807 	ldb	r5,-32(fp)
  281f54:	e13ffc17 	ldw	r4,-16(fp)
  281f58:	0281b880 	call	281b88 <lcd_handle_escape>
  281f5c:	e0fffc17 	ldw	r3,-16(fp)
  281f60:	00bfffc4 	movi	r2,-1
  281f64:	18800905 	stb	r2,36(r3)
  281f68:	00006c06 	br	28211c <altera_avalon_lcd_16207_write+0x2c4>
  281f6c:	e0bffc17 	ldw	r2,-16(fp)
  281f70:	10800903 	ldbu	r2,36(r2)
  281f74:	10803fcc 	andi	r2,r2,255
  281f78:	108001e8 	cmpgeui	r2,r2,7
  281f7c:	1000671e 	bne	r2,zero,28211c <altera_avalon_lcd_16207_write+0x2c4>
  281f80:	e0fff717 	ldw	r3,-36(fp)
  281f84:	e0bffc17 	ldw	r2,-16(fp)
  281f88:	1885883a 	add	r2,r3,r2
  281f8c:	10c00a04 	addi	r3,r2,40
  281f90:	e0bff803 	ldbu	r2,-32(fp)
  281f94:	18800005 	stb	r2,0(r3)
  281f98:	e0bffc17 	ldw	r2,-16(fp)
  281f9c:	10800903 	ldbu	r2,36(r2)
  281fa0:	10800044 	addi	r2,r2,1
  281fa4:	1007883a 	mov	r3,r2
  281fa8:	e0bffc17 	ldw	r2,-16(fp)
  281fac:	10c00905 	stb	r3,36(r2)
  281fb0:	00005a06 	br	28211c <altera_avalon_lcd_16207_write+0x2c4>
  281fb4:	e0bff807 	ldb	r2,-32(fp)
  281fb8:	108006d8 	cmpnei	r2,r2,27
  281fbc:	1000031e 	bne	r2,zero,281fcc <altera_avalon_lcd_16207_write+0x174>
  281fc0:	e0bffc17 	ldw	r2,-16(fp)
  281fc4:	10000905 	stb	zero,36(r2)
  281fc8:	00005406 	br	28211c <altera_avalon_lcd_16207_write+0x2c4>
  281fcc:	e0bff807 	ldb	r2,-32(fp)
  281fd0:	10800358 	cmpnei	r2,r2,13
  281fd4:	1000031e 	bne	r2,zero,281fe4 <altera_avalon_lcd_16207_write+0x18c>
  281fd8:	e0bffc17 	ldw	r2,-16(fp)
  281fdc:	10000845 	stb	zero,33(r2)
  281fe0:	00004e06 	br	28211c <altera_avalon_lcd_16207_write+0x2c4>
  281fe4:	e0bff807 	ldb	r2,-32(fp)
  281fe8:	10800298 	cmpnei	r2,r2,10
  281fec:	1000101e 	bne	r2,zero,282030 <altera_avalon_lcd_16207_write+0x1d8>
  281ff0:	e0bffc17 	ldw	r2,-16(fp)
  281ff4:	10000845 	stb	zero,33(r2)
  281ff8:	e0bffc17 	ldw	r2,-16(fp)
  281ffc:	10800883 	ldbu	r2,34(r2)
  282000:	10800044 	addi	r2,r2,1
  282004:	1007883a 	mov	r3,r2
  282008:	e0bffc17 	ldw	r2,-16(fp)
  28200c:	10c00885 	stb	r3,34(r2)
  282010:	e0bffc17 	ldw	r2,-16(fp)
  282014:	10800883 	ldbu	r2,34(r2)
  282018:	10803fcc 	andi	r2,r2,255
  28201c:	108000f0 	cmpltui	r2,r2,3
  282020:	10003e1e 	bne	r2,zero,28211c <altera_avalon_lcd_16207_write+0x2c4>
  282024:	e13ffc17 	ldw	r4,-16(fp)
  282028:	0281ac00 	call	281ac0 <lcd_scroll_up>
  28202c:	00003b06 	br	28211c <altera_avalon_lcd_16207_write+0x2c4>
  282030:	e0bff807 	ldb	r2,-32(fp)
  282034:	10800218 	cmpnei	r2,r2,8
  282038:	10000c1e 	bne	r2,zero,28206c <altera_avalon_lcd_16207_write+0x214>
  28203c:	e0bffc17 	ldw	r2,-16(fp)
  282040:	10800843 	ldbu	r2,33(r2)
  282044:	10803fcc 	andi	r2,r2,255
  282048:	1005003a 	cmpeq	r2,r2,zero
  28204c:	1000331e 	bne	r2,zero,28211c <altera_avalon_lcd_16207_write+0x2c4>
  282050:	e0bffc17 	ldw	r2,-16(fp)
  282054:	10800843 	ldbu	r2,33(r2)
  282058:	10bfffc4 	addi	r2,r2,-1
  28205c:	1007883a 	mov	r3,r2
  282060:	e0bffc17 	ldw	r2,-16(fp)
  282064:	10c00845 	stb	r3,33(r2)
  282068:	00002c06 	br	28211c <altera_avalon_lcd_16207_write+0x2c4>
  28206c:	e0bff807 	ldb	r2,-32(fp)
  282070:	1007883a 	mov	r3,r2
  282074:	00800a34 	movhi	r2,40
  282078:	10966d04 	addi	r2,r2,22964
  28207c:	10800017 	ldw	r2,0(r2)
  282080:	1885883a 	add	r2,r3,r2
  282084:	10800003 	ldbu	r2,0(r2)
  282088:	10803fcc 	andi	r2,r2,255
  28208c:	1080201c 	xori	r2,r2,128
  282090:	10bfe004 	addi	r2,r2,-128
  282094:	108025cc 	andi	r2,r2,151
  282098:	1005003a 	cmpeq	r2,r2,zero
  28209c:	10001f1e 	bne	r2,zero,28211c <altera_avalon_lcd_16207_write+0x2c4>
  2820a0:	e0bffc17 	ldw	r2,-16(fp)
  2820a4:	10800883 	ldbu	r2,34(r2)
  2820a8:	10803fcc 	andi	r2,r2,255
  2820ac:	108000b0 	cmpltui	r2,r2,2
  2820b0:	1000021e 	bne	r2,zero,2820bc <altera_avalon_lcd_16207_write+0x264>
  2820b4:	e13ffc17 	ldw	r4,-16(fp)
  2820b8:	0281ac00 	call	281ac0 <lcd_scroll_up>
  2820bc:	e0bffc17 	ldw	r2,-16(fp)
  2820c0:	10800843 	ldbu	r2,33(r2)
  2820c4:	10803fcc 	andi	r2,r2,255
  2820c8:	10801428 	cmpgeui	r2,r2,80
  2820cc:	10000d1e 	bne	r2,zero,282104 <altera_avalon_lcd_16207_write+0x2ac>
  2820d0:	e0bffc17 	ldw	r2,-16(fp)
  2820d4:	10800883 	ldbu	r2,34(r2)
  2820d8:	11003fcc 	andi	r4,r2,255
  2820dc:	e0bffc17 	ldw	r2,-16(fp)
  2820e0:	10800843 	ldbu	r2,33(r2)
  2820e4:	11403fcc 	andi	r5,r2,255
  2820e8:	e0fffc17 	ldw	r3,-16(fp)
  2820ec:	208018e4 	muli	r2,r4,99
  2820f0:	10c5883a 	add	r2,r2,r3
  2820f4:	1145883a 	add	r2,r2,r5
  2820f8:	10c01004 	addi	r3,r2,64
  2820fc:	e0bff803 	ldbu	r2,-32(fp)
  282100:	18800005 	stb	r2,0(r3)
  282104:	e0bffc17 	ldw	r2,-16(fp)
  282108:	10800843 	ldbu	r2,33(r2)
  28210c:	10800044 	addi	r2,r2,1
  282110:	1007883a 	mov	r3,r2
  282114:	e0bffc17 	ldw	r2,-16(fp)
  282118:	10c00845 	stb	r3,33(r2)
  28211c:	e0bffd17 	ldw	r2,-12(fp)
  282120:	10800044 	addi	r2,r2,1
  282124:	e0bffd15 	stw	r2,-12(fp)
  282128:	e0fffd17 	ldw	r3,-12(fp)
  28212c:	e0bffb17 	ldw	r2,-20(fp)
  282130:	18bf5b36 	bltu	r3,r2,281ea0 <altera_avalon_lcd_16207_write+0x48>
  282134:	00800404 	movi	r2,16
  282138:	e0bff915 	stw	r2,-28(fp)
  28213c:	e03ffa15 	stw	zero,-24(fp)
  282140:	00003606 	br	28221c <altera_avalon_lcd_16207_write+0x3c4>
  282144:	00801404 	movi	r2,80
  282148:	e0bff615 	stw	r2,-40(fp)
  28214c:	00001106 	br	282194 <altera_avalon_lcd_16207_write+0x33c>
  282150:	e13ffa17 	ldw	r4,-24(fp)
  282154:	e0bff617 	ldw	r2,-40(fp)
  282158:	117fffc4 	addi	r5,r2,-1
  28215c:	e0fffc17 	ldw	r3,-16(fp)
  282160:	208018e4 	muli	r2,r4,99
  282164:	10c5883a 	add	r2,r2,r3
  282168:	1145883a 	add	r2,r2,r5
  28216c:	10801004 	addi	r2,r2,64
  282170:	10800003 	ldbu	r2,0(r2)
  282174:	10803fcc 	andi	r2,r2,255
  282178:	1080201c 	xori	r2,r2,128
  28217c:	10bfe004 	addi	r2,r2,-128
  282180:	10800818 	cmpnei	r2,r2,32
  282184:	1000061e 	bne	r2,zero,2821a0 <altera_avalon_lcd_16207_write+0x348>
  282188:	e0bff617 	ldw	r2,-40(fp)
  28218c:	10bfffc4 	addi	r2,r2,-1
  282190:	e0bff615 	stw	r2,-40(fp)
  282194:	e0bff617 	ldw	r2,-40(fp)
  282198:	10800048 	cmpgei	r2,r2,1
  28219c:	103fec1e 	bne	r2,zero,282150 <altera_avalon_lcd_16207_write+0x2f8>
  2821a0:	e0bff617 	ldw	r2,-40(fp)
  2821a4:	10800448 	cmpgei	r2,r2,17
  2821a8:	1000031e 	bne	r2,zero,2821b8 <altera_avalon_lcd_16207_write+0x360>
  2821ac:	00800404 	movi	r2,16
  2821b0:	e0bff615 	stw	r2,-40(fp)
  2821b4:	00000306 	br	2821c4 <altera_avalon_lcd_16207_write+0x36c>
  2821b8:	e0bff617 	ldw	r2,-40(fp)
  2821bc:	10800044 	addi	r2,r2,1
  2821c0:	e0bff615 	stw	r2,-40(fp)
  2821c4:	e13ffa17 	ldw	r4,-24(fp)
  2821c8:	e0bff617 	ldw	r2,-40(fp)
  2821cc:	100b883a 	mov	r5,r2
  2821d0:	e0fffc17 	ldw	r3,-16(fp)
  2821d4:	208018e4 	muli	r2,r4,99
  2821d8:	10c5883a 	add	r2,r2,r3
  2821dc:	10802404 	addi	r2,r2,144
  2821e0:	11400045 	stb	r5,1(r2)
  2821e4:	e0fff917 	ldw	r3,-28(fp)
  2821e8:	e0bff617 	ldw	r2,-40(fp)
  2821ec:	1880020e 	bge	r3,r2,2821f8 <altera_avalon_lcd_16207_write+0x3a0>
  2821f0:	e0bff617 	ldw	r2,-40(fp)
  2821f4:	e0bff915 	stw	r2,-28(fp)
  2821f8:	e0bffa17 	ldw	r2,-24(fp)
  2821fc:	e0fffc17 	ldw	r3,-16(fp)
  282200:	108018e4 	muli	r2,r2,99
  282204:	10c5883a 	add	r2,r2,r3
  282208:	10802404 	addi	r2,r2,144
  28220c:	10000085 	stb	zero,2(r2)
  282210:	e0bffa17 	ldw	r2,-24(fp)
  282214:	10800044 	addi	r2,r2,1
  282218:	e0bffa15 	stw	r2,-24(fp)
  28221c:	e0bffa17 	ldw	r2,-24(fp)
  282220:	10800090 	cmplti	r2,r2,2
  282224:	103fc71e 	bne	r2,zero,282144 <altera_avalon_lcd_16207_write+0x2ec>
  282228:	e0bff917 	ldw	r2,-28(fp)
  28222c:	10800448 	cmpgei	r2,r2,17
  282230:	1000031e 	bne	r2,zero,282240 <altera_avalon_lcd_16207_write+0x3e8>
  282234:	e0bffc17 	ldw	r2,-16(fp)
  282238:	10000985 	stb	zero,38(r2)
  28223c:	00002d06 	br	2822f4 <altera_avalon_lcd_16207_write+0x49c>
  282240:	e0bff917 	ldw	r2,-28(fp)
  282244:	1085883a 	add	r2,r2,r2
  282248:	e0bff915 	stw	r2,-28(fp)
  28224c:	e0bff917 	ldw	r2,-28(fp)
  282250:	1007883a 	mov	r3,r2
  282254:	e0bffc17 	ldw	r2,-16(fp)
  282258:	10c00985 	stb	r3,38(r2)
  28225c:	e03ffa15 	stw	zero,-24(fp)
  282260:	00002106 	br	2822e8 <altera_avalon_lcd_16207_write+0x490>
  282264:	e0bffa17 	ldw	r2,-24(fp)
  282268:	e0fffc17 	ldw	r3,-16(fp)
  28226c:	108018e4 	muli	r2,r2,99
  282270:	10c5883a 	add	r2,r2,r3
  282274:	10802404 	addi	r2,r2,144
  282278:	10800043 	ldbu	r2,1(r2)
  28227c:	10803fcc 	andi	r2,r2,255
  282280:	1080201c 	xori	r2,r2,128
  282284:	10bfe004 	addi	r2,r2,-128
  282288:	10800450 	cmplti	r2,r2,17
  28228c:	1000131e 	bne	r2,zero,2822dc <altera_avalon_lcd_16207_write+0x484>
  282290:	e43ffa17 	ldw	r16,-24(fp)
  282294:	e0bffa17 	ldw	r2,-24(fp)
  282298:	e0fffc17 	ldw	r3,-16(fp)
  28229c:	108018e4 	muli	r2,r2,99
  2822a0:	10c5883a 	add	r2,r2,r3
  2822a4:	10802404 	addi	r2,r2,144
  2822a8:	10800043 	ldbu	r2,1(r2)
  2822ac:	10803fcc 	andi	r2,r2,255
  2822b0:	1080201c 	xori	r2,r2,128
  2822b4:	10bfe004 	addi	r2,r2,-128
  2822b8:	1008923a 	slli	r4,r2,8
  2822bc:	e17ff917 	ldw	r5,-28(fp)
  2822c0:	0283df80 	call	283df8 <__divsi3>
  2822c4:	1009883a 	mov	r4,r2
  2822c8:	e0fffc17 	ldw	r3,-16(fp)
  2822cc:	808018e4 	muli	r2,r16,99
  2822d0:	10c5883a 	add	r2,r2,r3
  2822d4:	10802404 	addi	r2,r2,144
  2822d8:	11000085 	stb	r4,2(r2)
  2822dc:	e0bffa17 	ldw	r2,-24(fp)
  2822e0:	10800044 	addi	r2,r2,1
  2822e4:	e0bffa15 	stw	r2,-24(fp)
  2822e8:	e0bffa17 	ldw	r2,-24(fp)
  2822ec:	10800090 	cmplti	r2,r2,2
  2822f0:	103fdc1e 	bne	r2,zero,282264 <altera_avalon_lcd_16207_write+0x40c>
  2822f4:	e0bffc17 	ldw	r2,-16(fp)
  2822f8:	10800943 	ldbu	r2,37(r2)
  2822fc:	10803fcc 	andi	r2,r2,255
  282300:	1080201c 	xori	r2,r2,128
  282304:	10bfe004 	addi	r2,r2,-128
  282308:	e0bff515 	stw	r2,-44(fp)
  28230c:	e13ffc17 	ldw	r4,-16(fp)
  282310:	02818d40 	call	2818d4 <lcd_repaint_screen>
  282314:	e0bffc17 	ldw	r2,-16(fp)
  282318:	100009c5 	stb	zero,39(r2)
  28231c:	e0bffc17 	ldw	r2,-16(fp)
  282320:	10800943 	ldbu	r2,37(r2)
  282324:	10c03fcc 	andi	r3,r2,255
  282328:	18c0201c 	xori	r3,r3,128
  28232c:	18ffe004 	addi	r3,r3,-128
  282330:	e0bff517 	ldw	r2,-44(fp)
  282334:	18800426 	beq	r3,r2,282348 <altera_avalon_lcd_16207_write+0x4f0>
  282338:	e0fffc17 	ldw	r3,-16(fp)
  28233c:	00800044 	movi	r2,1
  282340:	188009c5 	stb	r2,39(r3)
  282344:	003feb06 	br	2822f4 <altera_avalon_lcd_16207_write+0x49c>
  282348:	e0bffe17 	ldw	r2,-8(fp)
  28234c:	e037883a 	mov	sp,fp
  282350:	dfc00217 	ldw	ra,8(sp)
  282354:	df000117 	ldw	fp,4(sp)
  282358:	dc000017 	ldw	r16,0(sp)
  28235c:	dec00304 	addi	sp,sp,12
  282360:	f800283a 	ret

00282364 <alt_lcd_16207_timeout>:
  282364:	defffc04 	addi	sp,sp,-16
  282368:	dfc00315 	stw	ra,12(sp)
  28236c:	df000215 	stw	fp,8(sp)
  282370:	df000204 	addi	fp,sp,8
  282374:	e13fff15 	stw	r4,-4(fp)
  282378:	e0bfff17 	ldw	r2,-4(fp)
  28237c:	e0bffe15 	stw	r2,-8(fp)
  282380:	e0bffe17 	ldw	r2,-8(fp)
  282384:	10800943 	ldbu	r2,37(r2)
  282388:	10803fcc 	andi	r2,r2,255
  28238c:	1080201c 	xori	r2,r2,128
  282390:	10bfe004 	addi	r2,r2,-128
  282394:	10c00044 	addi	r3,r2,1
  282398:	e0bffe17 	ldw	r2,-8(fp)
  28239c:	10800983 	ldbu	r2,38(r2)
  2823a0:	10803fcc 	andi	r2,r2,255
  2823a4:	1080201c 	xori	r2,r2,128
  2823a8:	10bfe004 	addi	r2,r2,-128
  2823ac:	18800316 	blt	r3,r2,2823bc <alt_lcd_16207_timeout+0x58>
  2823b0:	e0bffe17 	ldw	r2,-8(fp)
  2823b4:	10000945 	stb	zero,37(r2)
  2823b8:	00000606 	br	2823d4 <alt_lcd_16207_timeout+0x70>
  2823bc:	e0bffe17 	ldw	r2,-8(fp)
  2823c0:	10800943 	ldbu	r2,37(r2)
  2823c4:	10800044 	addi	r2,r2,1
  2823c8:	1007883a 	mov	r3,r2
  2823cc:	e0bffe17 	ldw	r2,-8(fp)
  2823d0:	10c00945 	stb	r3,37(r2)
  2823d4:	e0bffe17 	ldw	r2,-8(fp)
  2823d8:	10800983 	ldbu	r2,38(r2)
  2823dc:	10803fcc 	andi	r2,r2,255
  2823e0:	1080201c 	xori	r2,r2,128
  2823e4:	10bfe004 	addi	r2,r2,-128
  2823e8:	10800050 	cmplti	r2,r2,1
  2823ec:	1000091e 	bne	r2,zero,282414 <alt_lcd_16207_timeout+0xb0>
  2823f0:	e0bffe17 	ldw	r2,-8(fp)
  2823f4:	108009c3 	ldbu	r2,39(r2)
  2823f8:	10803fcc 	andi	r2,r2,255
  2823fc:	1080201c 	xori	r2,r2,128
  282400:	10bfe004 	addi	r2,r2,-128
  282404:	1004c03a 	cmpne	r2,r2,zero
  282408:	1000021e 	bne	r2,zero,282414 <alt_lcd_16207_timeout+0xb0>
  28240c:	e13ffe17 	ldw	r4,-8(fp)
  282410:	02818d40 	call	2818d4 <lcd_repaint_screen>
  282414:	e0bffe17 	ldw	r2,-8(fp)
  282418:	10800717 	ldw	r2,28(r2)
  28241c:	e037883a 	mov	sp,fp
  282420:	dfc00117 	ldw	ra,4(sp)
  282424:	df000017 	ldw	fp,0(sp)
  282428:	dec00204 	addi	sp,sp,8
  28242c:	f800283a 	ret

00282430 <altera_avalon_lcd_16207_init>:
  282430:	defffc04 	addi	sp,sp,-16
  282434:	dfc00315 	stw	ra,12(sp)
  282438:	df000215 	stw	fp,8(sp)
  28243c:	df000204 	addi	fp,sp,8
  282440:	e13fff15 	stw	r4,-4(fp)
  282444:	e0bfff17 	ldw	r2,-4(fp)
  282448:	10800017 	ldw	r2,0(r2)
  28244c:	e0bffe15 	stw	r2,-8(fp)
  282450:	e0bfff17 	ldw	r2,-4(fp)
  282454:	10000805 	stb	zero,32(r2)
  282458:	010ea604 	movi	r4,15000
  28245c:	02808e80 	call	2808e8 <usleep>
  282460:	e0bffe17 	ldw	r2,-8(fp)
  282464:	1007883a 	mov	r3,r2
  282468:	00800c04 	movi	r2,48
  28246c:	18800035 	stwio	r2,0(r3)
  282470:	01040104 	movi	r4,4100
  282474:	02808e80 	call	2808e8 <usleep>
  282478:	e0bffe17 	ldw	r2,-8(fp)
  28247c:	1007883a 	mov	r3,r2
  282480:	00800c04 	movi	r2,48
  282484:	18800035 	stwio	r2,0(r3)
  282488:	0100fa04 	movi	r4,1000
  28248c:	02808e80 	call	2808e8 <usleep>
  282490:	e0bffe17 	ldw	r2,-8(fp)
  282494:	1007883a 	mov	r3,r2
  282498:	00800c04 	movi	r2,48
  28249c:	18800035 	stwio	r2,0(r3)
  2824a0:	e13fff17 	ldw	r4,-4(fp)
  2824a4:	01400e04 	movi	r5,56
  2824a8:	02816840 	call	281684 <lcd_write_command>
  2824ac:	e13fff17 	ldw	r4,-4(fp)
  2824b0:	01400204 	movi	r5,8
  2824b4:	02816840 	call	281684 <lcd_write_command>
  2824b8:	e13fff17 	ldw	r4,-4(fp)
  2824bc:	02818100 	call	281810 <lcd_clear_screen>
  2824c0:	e13fff17 	ldw	r4,-4(fp)
  2824c4:	01400184 	movi	r5,6
  2824c8:	02816840 	call	281684 <lcd_write_command>
  2824cc:	e13fff17 	ldw	r4,-4(fp)
  2824d0:	01400304 	movi	r5,12
  2824d4:	02816840 	call	281684 <lcd_write_command>
  2824d8:	e0ffff17 	ldw	r3,-4(fp)
  2824dc:	00bfffc4 	movi	r2,-1
  2824e0:	18800905 	stb	r2,36(r3)
  2824e4:	e0bfff17 	ldw	r2,-4(fp)
  2824e8:	11000a04 	addi	r4,r2,40
  2824ec:	000b883a 	mov	r5,zero
  2824f0:	01800204 	movi	r6,8
  2824f4:	02839880 	call	283988 <memset>
  2824f8:	e0bfff17 	ldw	r2,-4(fp)
  2824fc:	10000945 	stb	zero,37(r2)
  282500:	e0bfff17 	ldw	r2,-4(fp)
  282504:	10000985 	stb	zero,38(r2)
  282508:	e0bfff17 	ldw	r2,-4(fp)
  28250c:	100009c5 	stb	zero,39(r2)
  282510:	00800a34 	movhi	r2,40
  282514:	109c6004 	addi	r2,r2,29056
  282518:	10800017 	ldw	r2,0(r2)
  28251c:	1009883a 	mov	r4,r2
  282520:	01400284 	movi	r5,10
  282524:	0283eb80 	call	283eb8 <__udivsi3>
  282528:	1007883a 	mov	r3,r2
  28252c:	e0bfff17 	ldw	r2,-4(fp)
  282530:	10c00715 	stw	r3,28(r2)
  282534:	e0bfff17 	ldw	r2,-4(fp)
  282538:	11000104 	addi	r4,r2,4
  28253c:	e0bfff17 	ldw	r2,-4(fp)
  282540:	10800717 	ldw	r2,28(r2)
  282544:	100b883a 	mov	r5,r2
  282548:	01800a34 	movhi	r6,40
  28254c:	3188d904 	addi	r6,r6,9060
  282550:	e1ffff17 	ldw	r7,-4(fp)
  282554:	02825c40 	call	2825c4 <alt_alarm_start>
  282558:	e037883a 	mov	sp,fp
  28255c:	dfc00117 	ldw	ra,4(sp)
  282560:	df000017 	ldw	fp,0(sp)
  282564:	dec00204 	addi	sp,sp,8
  282568:	f800283a 	ret

0028256c <altera_avalon_lcd_16207_write_fd>:
  28256c:	defffa04 	addi	sp,sp,-24
  282570:	dfc00515 	stw	ra,20(sp)
  282574:	df000415 	stw	fp,16(sp)
  282578:	df000404 	addi	fp,sp,16
  28257c:	e13ffd15 	stw	r4,-12(fp)
  282580:	e17ffe15 	stw	r5,-8(fp)
  282584:	e1bfff15 	stw	r6,-4(fp)
  282588:	e0bffd17 	ldw	r2,-12(fp)
  28258c:	10800017 	ldw	r2,0(r2)
  282590:	e0bffc15 	stw	r2,-16(fp)
  282594:	e0bffc17 	ldw	r2,-16(fp)
  282598:	11000a04 	addi	r4,r2,40
  28259c:	e0bffd17 	ldw	r2,-12(fp)
  2825a0:	11c00217 	ldw	r7,8(r2)
  2825a4:	e17ffe17 	ldw	r5,-8(fp)
  2825a8:	e1bfff17 	ldw	r6,-4(fp)
  2825ac:	0281e580 	call	281e58 <altera_avalon_lcd_16207_write>
  2825b0:	e037883a 	mov	sp,fp
  2825b4:	dfc00117 	ldw	ra,4(sp)
  2825b8:	df000017 	ldw	fp,0(sp)
  2825bc:	dec00204 	addi	sp,sp,8
  2825c0:	f800283a 	ret

002825c4 <alt_alarm_start>:
  2825c4:	defff404 	addi	sp,sp,-48
  2825c8:	df000b15 	stw	fp,44(sp)
  2825cc:	df000b04 	addi	fp,sp,44
  2825d0:	e13ffb15 	stw	r4,-20(fp)
  2825d4:	e17ffc15 	stw	r5,-16(fp)
  2825d8:	e1bffd15 	stw	r6,-12(fp)
  2825dc:	e1fffe15 	stw	r7,-8(fp)
  2825e0:	e03ff915 	stw	zero,-28(fp)
  2825e4:	00800a34 	movhi	r2,40
  2825e8:	109c6004 	addi	r2,r2,29056
  2825ec:	10800017 	ldw	r2,0(r2)
  2825f0:	1005003a 	cmpeq	r2,r2,zero
  2825f4:	1000411e 	bne	r2,zero,2826fc <alt_alarm_start+0x138>
  2825f8:	e0bffb17 	ldw	r2,-20(fp)
  2825fc:	1005003a 	cmpeq	r2,r2,zero
  282600:	10003b1e 	bne	r2,zero,2826f0 <alt_alarm_start+0x12c>
  282604:	e0fffb17 	ldw	r3,-20(fp)
  282608:	e0bffd17 	ldw	r2,-12(fp)
  28260c:	18800315 	stw	r2,12(r3)
  282610:	e0fffb17 	ldw	r3,-20(fp)
  282614:	e0bffe17 	ldw	r2,-8(fp)
  282618:	18800515 	stw	r2,20(r3)
  28261c:	0005303a 	rdctl	r2,status
  282620:	e0bff815 	stw	r2,-32(fp)
  282624:	e0fff817 	ldw	r3,-32(fp)
  282628:	00bfff84 	movi	r2,-2
  28262c:	1884703a 	and	r2,r3,r2
  282630:	1001703a 	wrctl	status,r2
  282634:	e0bff817 	ldw	r2,-32(fp)
  282638:	e0bffa15 	stw	r2,-24(fp)
  28263c:	00800a34 	movhi	r2,40
  282640:	109c6104 	addi	r2,r2,29060
  282644:	10800017 	ldw	r2,0(r2)
  282648:	e0bff915 	stw	r2,-28(fp)
  28264c:	e0fffc17 	ldw	r3,-16(fp)
  282650:	e0bff917 	ldw	r2,-28(fp)
  282654:	1885883a 	add	r2,r3,r2
  282658:	10c00044 	addi	r3,r2,1
  28265c:	e0bffb17 	ldw	r2,-20(fp)
  282660:	10c00215 	stw	r3,8(r2)
  282664:	e0bffb17 	ldw	r2,-20(fp)
  282668:	10c00217 	ldw	r3,8(r2)
  28266c:	e0bff917 	ldw	r2,-28(fp)
  282670:	1880042e 	bgeu	r3,r2,282684 <alt_alarm_start+0xc0>
  282674:	e0fffb17 	ldw	r3,-20(fp)
  282678:	00800044 	movi	r2,1
  28267c:	18800405 	stb	r2,16(r3)
  282680:	00000206 	br	28268c <alt_alarm_start+0xc8>
  282684:	e0bffb17 	ldw	r2,-20(fp)
  282688:	10000405 	stb	zero,16(r2)
  28268c:	e0fffb17 	ldw	r3,-20(fp)
  282690:	00800a34 	movhi	r2,40
  282694:	10966b04 	addi	r2,r2,22956
  282698:	e0bff615 	stw	r2,-40(fp)
  28269c:	e0fff715 	stw	r3,-36(fp)
  2826a0:	e0fff717 	ldw	r3,-36(fp)
  2826a4:	e0bff617 	ldw	r2,-40(fp)
  2826a8:	18800115 	stw	r2,4(r3)
  2826ac:	e0bff617 	ldw	r2,-40(fp)
  2826b0:	10c00017 	ldw	r3,0(r2)
  2826b4:	e0bff717 	ldw	r2,-36(fp)
  2826b8:	10c00015 	stw	r3,0(r2)
  2826bc:	e0bff617 	ldw	r2,-40(fp)
  2826c0:	10c00017 	ldw	r3,0(r2)
  2826c4:	e0bff717 	ldw	r2,-36(fp)
  2826c8:	18800115 	stw	r2,4(r3)
  2826cc:	e0fff617 	ldw	r3,-40(fp)
  2826d0:	e0bff717 	ldw	r2,-36(fp)
  2826d4:	18800015 	stw	r2,0(r3)
  2826d8:	e0bffa17 	ldw	r2,-24(fp)
  2826dc:	e0bff515 	stw	r2,-44(fp)
  2826e0:	e0bff517 	ldw	r2,-44(fp)
  2826e4:	1001703a 	wrctl	status,r2
  2826e8:	e03fff15 	stw	zero,-4(fp)
  2826ec:	00000506 	br	282704 <alt_alarm_start+0x140>
  2826f0:	00bffa84 	movi	r2,-22
  2826f4:	e0bfff15 	stw	r2,-4(fp)
  2826f8:	00000206 	br	282704 <alt_alarm_start+0x140>
  2826fc:	00bfde84 	movi	r2,-134
  282700:	e0bfff15 	stw	r2,-4(fp)
  282704:	e0bfff17 	ldw	r2,-4(fp)
  282708:	e037883a 	mov	sp,fp
  28270c:	df000017 	ldw	fp,0(sp)
  282710:	dec00104 	addi	sp,sp,4
  282714:	f800283a 	ret

00282718 <alt_busy_sleep>:
  282718:	defffa04 	addi	sp,sp,-24
  28271c:	dfc00515 	stw	ra,20(sp)
  282720:	df000415 	stw	fp,16(sp)
  282724:	df000404 	addi	fp,sp,16
  282728:	e13fff15 	stw	r4,-4(fp)
  28272c:	008000c4 	movi	r2,3
  282730:	e0bffc15 	stw	r2,-16(fp)
  282734:	e0fffc17 	ldw	r3,-16(fp)
  282738:	008003f4 	movhi	r2,15
  28273c:	10909004 	addi	r2,r2,16960
  282740:	188b383a 	mul	r5,r3,r2
  282744:	0100bef4 	movhi	r4,763
  282748:	213c2004 	addi	r4,r4,-3968
  28274c:	0283eb80 	call	283eb8 <__udivsi3>
  282750:	100b883a 	mov	r5,r2
  282754:	01200034 	movhi	r4,32768
  282758:	213fffc4 	addi	r4,r4,-1
  28275c:	0283eb80 	call	283eb8 <__udivsi3>
  282760:	100b883a 	mov	r5,r2
  282764:	e13fff17 	ldw	r4,-4(fp)
  282768:	0283eb80 	call	283eb8 <__udivsi3>
  28276c:	e0bffd15 	stw	r2,-12(fp)
  282770:	e0bffd17 	ldw	r2,-12(fp)
  282774:	1005003a 	cmpeq	r2,r2,zero
  282778:	1000281e 	bne	r2,zero,28281c <alt_busy_sleep+0x104>
  28277c:	e03ffe15 	stw	zero,-8(fp)
  282780:	00001606 	br	2827dc <alt_busy_sleep+0xc4>
  282784:	00a00034 	movhi	r2,32768
  282788:	10bfffc4 	addi	r2,r2,-1
  28278c:	10bfffc4 	addi	r2,r2,-1
  282790:	103ffe1e 	bne	r2,zero,28278c <alt_busy_sleep+0x74>
  282794:	e0fffc17 	ldw	r3,-16(fp)
  282798:	008003f4 	movhi	r2,15
  28279c:	10909004 	addi	r2,r2,16960
  2827a0:	188b383a 	mul	r5,r3,r2
  2827a4:	0100bef4 	movhi	r4,763
  2827a8:	213c2004 	addi	r4,r4,-3968
  2827ac:	0283eb80 	call	283eb8 <__udivsi3>
  2827b0:	100b883a 	mov	r5,r2
  2827b4:	01200034 	movhi	r4,32768
  2827b8:	213fffc4 	addi	r4,r4,-1
  2827bc:	0283eb80 	call	283eb8 <__udivsi3>
  2827c0:	1007883a 	mov	r3,r2
  2827c4:	e0bfff17 	ldw	r2,-4(fp)
  2827c8:	10c5c83a 	sub	r2,r2,r3
  2827cc:	e0bfff15 	stw	r2,-4(fp)
  2827d0:	e0bffe17 	ldw	r2,-8(fp)
  2827d4:	10800044 	addi	r2,r2,1
  2827d8:	e0bffe15 	stw	r2,-8(fp)
  2827dc:	e0fffe17 	ldw	r3,-8(fp)
  2827e0:	e0bffd17 	ldw	r2,-12(fp)
  2827e4:	18bfe716 	blt	r3,r2,282784 <alt_busy_sleep+0x6c>
  2827e8:	e0fffc17 	ldw	r3,-16(fp)
  2827ec:	008003f4 	movhi	r2,15
  2827f0:	10909004 	addi	r2,r2,16960
  2827f4:	188b383a 	mul	r5,r3,r2
  2827f8:	0100bef4 	movhi	r4,763
  2827fc:	213c2004 	addi	r4,r4,-3968
  282800:	0283eb80 	call	283eb8 <__udivsi3>
  282804:	1007883a 	mov	r3,r2
  282808:	e0bfff17 	ldw	r2,-4(fp)
  28280c:	1885383a 	mul	r2,r3,r2
  282810:	10bfffc4 	addi	r2,r2,-1
  282814:	103ffe1e 	bne	r2,zero,282810 <alt_busy_sleep+0xf8>
  282818:	00000c06 	br	28284c <alt_busy_sleep+0x134>
  28281c:	e0fffc17 	ldw	r3,-16(fp)
  282820:	008003f4 	movhi	r2,15
  282824:	10909004 	addi	r2,r2,16960
  282828:	188b383a 	mul	r5,r3,r2
  28282c:	0100bef4 	movhi	r4,763
  282830:	213c2004 	addi	r4,r4,-3968
  282834:	0283eb80 	call	283eb8 <__udivsi3>
  282838:	1007883a 	mov	r3,r2
  28283c:	e0bfff17 	ldw	r2,-4(fp)
  282840:	1885383a 	mul	r2,r3,r2
  282844:	10bfffc4 	addi	r2,r2,-1
  282848:	00bffe16 	blt	zero,r2,282844 <alt_busy_sleep+0x12c>
  28284c:	0005883a 	mov	r2,zero
  282850:	e037883a 	mov	sp,fp
  282854:	dfc00117 	ldw	ra,4(sp)
  282858:	df000017 	ldw	fp,0(sp)
  28285c:	dec00204 	addi	sp,sp,8
  282860:	f800283a 	ret

00282864 <close>:
  282864:	defff804 	addi	sp,sp,-32
  282868:	dfc00715 	stw	ra,28(sp)
  28286c:	df000615 	stw	fp,24(sp)
  282870:	df000604 	addi	fp,sp,24
  282874:	e13ffc15 	stw	r4,-16(fp)
  282878:	e0bffc17 	ldw	r2,-16(fp)
  28287c:	1004803a 	cmplt	r2,r2,zero
  282880:	1000081e 	bne	r2,zero,2828a4 <close+0x40>
  282884:	e0bffc17 	ldw	r2,-16(fp)
  282888:	10800324 	muli	r2,r2,12
  28288c:	1007883a 	mov	r3,r2
  282890:	00800a34 	movhi	r2,40
  282894:	10950304 	addi	r2,r2,21516
  282898:	1887883a 	add	r3,r3,r2
  28289c:	e0ffff15 	stw	r3,-4(fp)
  2828a0:	00000106 	br	2828a8 <close+0x44>
  2828a4:	e03fff15 	stw	zero,-4(fp)
  2828a8:	e0bfff17 	ldw	r2,-4(fp)
  2828ac:	e0bffb15 	stw	r2,-20(fp)
  2828b0:	e0bffb17 	ldw	r2,-20(fp)
  2828b4:	1005003a 	cmpeq	r2,r2,zero
  2828b8:	10001d1e 	bne	r2,zero,282930 <close+0xcc>
  2828bc:	e0bffb17 	ldw	r2,-20(fp)
  2828c0:	10800017 	ldw	r2,0(r2)
  2828c4:	10800417 	ldw	r2,16(r2)
  2828c8:	1005003a 	cmpeq	r2,r2,zero
  2828cc:	1000071e 	bne	r2,zero,2828ec <close+0x88>
  2828d0:	e0bffb17 	ldw	r2,-20(fp)
  2828d4:	10800017 	ldw	r2,0(r2)
  2828d8:	10800417 	ldw	r2,16(r2)
  2828dc:	e13ffb17 	ldw	r4,-20(fp)
  2828e0:	103ee83a 	callr	r2
  2828e4:	e0bffe15 	stw	r2,-8(fp)
  2828e8:	00000106 	br	2828f0 <close+0x8c>
  2828ec:	e03ffe15 	stw	zero,-8(fp)
  2828f0:	e0bffe17 	ldw	r2,-8(fp)
  2828f4:	e0bffa15 	stw	r2,-24(fp)
  2828f8:	e13ffc17 	ldw	r4,-16(fp)
  2828fc:	02833080 	call	283308 <alt_release_fd>
  282900:	e0bffa17 	ldw	r2,-24(fp)
  282904:	1004403a 	cmpge	r2,r2,zero
  282908:	1000071e 	bne	r2,zero,282928 <close+0xc4>
  28290c:	02829600 	call	282960 <alt_get_errno>
  282910:	e0fffa17 	ldw	r3,-24(fp)
  282914:	00c7c83a 	sub	r3,zero,r3
  282918:	10c00015 	stw	r3,0(r2)
  28291c:	00bfffc4 	movi	r2,-1
  282920:	e0bffd15 	stw	r2,-12(fp)
  282924:	00000806 	br	282948 <close+0xe4>
  282928:	e03ffd15 	stw	zero,-12(fp)
  28292c:	00000606 	br	282948 <close+0xe4>
  282930:	02829600 	call	282960 <alt_get_errno>
  282934:	1007883a 	mov	r3,r2
  282938:	00801444 	movi	r2,81
  28293c:	18800015 	stw	r2,0(r3)
  282940:	00bfffc4 	movi	r2,-1
  282944:	e0bffd15 	stw	r2,-12(fp)
  282948:	e0bffd17 	ldw	r2,-12(fp)
  28294c:	e037883a 	mov	sp,fp
  282950:	dfc00117 	ldw	ra,4(sp)
  282954:	df000017 	ldw	fp,0(sp)
  282958:	dec00204 	addi	sp,sp,8
  28295c:	f800283a 	ret

00282960 <alt_get_errno>:
  282960:	defffd04 	addi	sp,sp,-12
  282964:	dfc00215 	stw	ra,8(sp)
  282968:	df000115 	stw	fp,4(sp)
  28296c:	df000104 	addi	fp,sp,4
  282970:	00800a34 	movhi	r2,40
  282974:	10966904 	addi	r2,r2,22948
  282978:	10800017 	ldw	r2,0(r2)
  28297c:	1005003a 	cmpeq	r2,r2,zero
  282980:	1000061e 	bne	r2,zero,28299c <alt_get_errno+0x3c>
  282984:	00800a34 	movhi	r2,40
  282988:	10966904 	addi	r2,r2,22948
  28298c:	10800017 	ldw	r2,0(r2)
  282990:	103ee83a 	callr	r2
  282994:	e0bfff15 	stw	r2,-4(fp)
  282998:	00000306 	br	2829a8 <alt_get_errno+0x48>
  28299c:	00800a34 	movhi	r2,40
  2829a0:	109c6204 	addi	r2,r2,29064
  2829a4:	e0bfff15 	stw	r2,-4(fp)
  2829a8:	e0bfff17 	ldw	r2,-4(fp)
  2829ac:	e037883a 	mov	sp,fp
  2829b0:	dfc00117 	ldw	ra,4(sp)
  2829b4:	df000017 	ldw	fp,0(sp)
  2829b8:	dec00204 	addi	sp,sp,8
  2829bc:	f800283a 	ret

002829c0 <alt_dcache_flush_all>:
  2829c0:	defffe04 	addi	sp,sp,-8
  2829c4:	df000115 	stw	fp,4(sp)
  2829c8:	df000104 	addi	fp,sp,4
  2829cc:	e03fff15 	stw	zero,-4(fp)
  2829d0:	00000506 	br	2829e8 <alt_dcache_flush_all+0x28>
  2829d4:	e0bfff17 	ldw	r2,-4(fp)
  2829d8:	1000003b 	flushd	0(r2)
  2829dc:	e0bfff17 	ldw	r2,-4(fp)
  2829e0:	10800804 	addi	r2,r2,32
  2829e4:	e0bfff15 	stw	r2,-4(fp)
  2829e8:	e0bfff17 	ldw	r2,-4(fp)
  2829ec:	10820030 	cmpltui	r2,r2,2048
  2829f0:	103ff81e 	bne	r2,zero,2829d4 <alt_dcache_flush_all+0x14>
  2829f4:	e037883a 	mov	sp,fp
  2829f8:	df000017 	ldw	fp,0(sp)
  2829fc:	dec00104 	addi	sp,sp,4
  282a00:	f800283a 	ret

00282a04 <alt_dev_null_write>:
  282a04:	defffc04 	addi	sp,sp,-16
  282a08:	df000315 	stw	fp,12(sp)
  282a0c:	df000304 	addi	fp,sp,12
  282a10:	e13ffd15 	stw	r4,-12(fp)
  282a14:	e17ffe15 	stw	r5,-8(fp)
  282a18:	e1bfff15 	stw	r6,-4(fp)
  282a1c:	e0bfff17 	ldw	r2,-4(fp)
  282a20:	e037883a 	mov	sp,fp
  282a24:	df000017 	ldw	fp,0(sp)
  282a28:	dec00104 	addi	sp,sp,4
  282a2c:	f800283a 	ret

00282a30 <alt_dev_llist_insert>:
  282a30:	defff904 	addi	sp,sp,-28
  282a34:	dfc00615 	stw	ra,24(sp)
  282a38:	df000515 	stw	fp,20(sp)
  282a3c:	df000504 	addi	fp,sp,20
  282a40:	e13ffd15 	stw	r4,-12(fp)
  282a44:	e17ffe15 	stw	r5,-8(fp)
  282a48:	e0bffd17 	ldw	r2,-12(fp)
  282a4c:	1005003a 	cmpeq	r2,r2,zero
  282a50:	1000041e 	bne	r2,zero,282a64 <alt_dev_llist_insert+0x34>
  282a54:	e0bffd17 	ldw	r2,-12(fp)
  282a58:	10800217 	ldw	r2,8(r2)
  282a5c:	1004c03a 	cmpne	r2,r2,zero
  282a60:	1000071e 	bne	r2,zero,282a80 <alt_dev_llist_insert+0x50>
  282a64:	0282ae40 	call	282ae4 <alt_get_errno>
  282a68:	1007883a 	mov	r3,r2
  282a6c:	00800584 	movi	r2,22
  282a70:	18800015 	stw	r2,0(r3)
  282a74:	00bffa84 	movi	r2,-22
  282a78:	e0bfff15 	stw	r2,-4(fp)
  282a7c:	00001306 	br	282acc <alt_dev_llist_insert+0x9c>
  282a80:	e0fffd17 	ldw	r3,-12(fp)
  282a84:	e0bffe17 	ldw	r2,-8(fp)
  282a88:	e0bffb15 	stw	r2,-20(fp)
  282a8c:	e0fffc15 	stw	r3,-16(fp)
  282a90:	e0fffc17 	ldw	r3,-16(fp)
  282a94:	e0bffb17 	ldw	r2,-20(fp)
  282a98:	18800115 	stw	r2,4(r3)
  282a9c:	e0bffb17 	ldw	r2,-20(fp)
  282aa0:	10c00017 	ldw	r3,0(r2)
  282aa4:	e0bffc17 	ldw	r2,-16(fp)
  282aa8:	10c00015 	stw	r3,0(r2)
  282aac:	e0bffb17 	ldw	r2,-20(fp)
  282ab0:	10c00017 	ldw	r3,0(r2)
  282ab4:	e0bffc17 	ldw	r2,-16(fp)
  282ab8:	18800115 	stw	r2,4(r3)
  282abc:	e0fffb17 	ldw	r3,-20(fp)
  282ac0:	e0bffc17 	ldw	r2,-16(fp)
  282ac4:	18800015 	stw	r2,0(r3)
  282ac8:	e03fff15 	stw	zero,-4(fp)
  282acc:	e0bfff17 	ldw	r2,-4(fp)
  282ad0:	e037883a 	mov	sp,fp
  282ad4:	dfc00117 	ldw	ra,4(sp)
  282ad8:	df000017 	ldw	fp,0(sp)
  282adc:	dec00204 	addi	sp,sp,8
  282ae0:	f800283a 	ret

00282ae4 <alt_get_errno>:
  282ae4:	defffd04 	addi	sp,sp,-12
  282ae8:	dfc00215 	stw	ra,8(sp)
  282aec:	df000115 	stw	fp,4(sp)
  282af0:	df000104 	addi	fp,sp,4
  282af4:	00800a34 	movhi	r2,40
  282af8:	10966904 	addi	r2,r2,22948
  282afc:	10800017 	ldw	r2,0(r2)
  282b00:	1005003a 	cmpeq	r2,r2,zero
  282b04:	1000061e 	bne	r2,zero,282b20 <alt_get_errno+0x3c>
  282b08:	00800a34 	movhi	r2,40
  282b0c:	10966904 	addi	r2,r2,22948
  282b10:	10800017 	ldw	r2,0(r2)
  282b14:	103ee83a 	callr	r2
  282b18:	e0bfff15 	stw	r2,-4(fp)
  282b1c:	00000306 	br	282b2c <alt_get_errno+0x48>
  282b20:	00800a34 	movhi	r2,40
  282b24:	109c6204 	addi	r2,r2,29064
  282b28:	e0bfff15 	stw	r2,-4(fp)
  282b2c:	e0bfff17 	ldw	r2,-4(fp)
  282b30:	e037883a 	mov	sp,fp
  282b34:	dfc00117 	ldw	ra,4(sp)
  282b38:	df000017 	ldw	fp,0(sp)
  282b3c:	dec00204 	addi	sp,sp,8
  282b40:	f800283a 	ret

00282b44 <_do_ctors>:
  282b44:	defffd04 	addi	sp,sp,-12
  282b48:	dfc00215 	stw	ra,8(sp)
  282b4c:	df000115 	stw	fp,4(sp)
  282b50:	df000104 	addi	fp,sp,4
  282b54:	00bfff04 	movi	r2,-4
  282b58:	00c00a34 	movhi	r3,40
  282b5c:	18cfcb04 	addi	r3,r3,16172
  282b60:	1885883a 	add	r2,r3,r2
  282b64:	e0bfff15 	stw	r2,-4(fp)
  282b68:	00000606 	br	282b84 <_do_ctors+0x40>
  282b6c:	e0bfff17 	ldw	r2,-4(fp)
  282b70:	10800017 	ldw	r2,0(r2)
  282b74:	103ee83a 	callr	r2
  282b78:	e0bfff17 	ldw	r2,-4(fp)
  282b7c:	10bfff04 	addi	r2,r2,-4
  282b80:	e0bfff15 	stw	r2,-4(fp)
  282b84:	e0ffff17 	ldw	r3,-4(fp)
  282b88:	00800a34 	movhi	r2,40
  282b8c:	108fca04 	addi	r2,r2,16168
  282b90:	18bff62e 	bgeu	r3,r2,282b6c <_do_ctors+0x28>
  282b94:	e037883a 	mov	sp,fp
  282b98:	dfc00117 	ldw	ra,4(sp)
  282b9c:	df000017 	ldw	fp,0(sp)
  282ba0:	dec00204 	addi	sp,sp,8
  282ba4:	f800283a 	ret

00282ba8 <_do_dtors>:
  282ba8:	defffd04 	addi	sp,sp,-12
  282bac:	dfc00215 	stw	ra,8(sp)
  282bb0:	df000115 	stw	fp,4(sp)
  282bb4:	df000104 	addi	fp,sp,4
  282bb8:	00bfff04 	movi	r2,-4
  282bbc:	00c00a34 	movhi	r3,40
  282bc0:	18cfcb04 	addi	r3,r3,16172
  282bc4:	1885883a 	add	r2,r3,r2
  282bc8:	e0bfff15 	stw	r2,-4(fp)
  282bcc:	00000606 	br	282be8 <_do_dtors+0x40>
  282bd0:	e0bfff17 	ldw	r2,-4(fp)
  282bd4:	10800017 	ldw	r2,0(r2)
  282bd8:	103ee83a 	callr	r2
  282bdc:	e0bfff17 	ldw	r2,-4(fp)
  282be0:	10bfff04 	addi	r2,r2,-4
  282be4:	e0bfff15 	stw	r2,-4(fp)
  282be8:	e0ffff17 	ldw	r3,-4(fp)
  282bec:	00800a34 	movhi	r2,40
  282bf0:	108fcb04 	addi	r2,r2,16172
  282bf4:	18bff62e 	bgeu	r3,r2,282bd0 <_do_dtors+0x28>
  282bf8:	e037883a 	mov	sp,fp
  282bfc:	dfc00117 	ldw	ra,4(sp)
  282c00:	df000017 	ldw	fp,0(sp)
  282c04:	dec00204 	addi	sp,sp,8
  282c08:	f800283a 	ret

00282c0c <alt_icache_flush_all>:
  282c0c:	defffe04 	addi	sp,sp,-8
  282c10:	dfc00115 	stw	ra,4(sp)
  282c14:	df000015 	stw	fp,0(sp)
  282c18:	d839883a 	mov	fp,sp
  282c1c:	0009883a 	mov	r4,zero
  282c20:	01440004 	movi	r5,4096
  282c24:	02837980 	call	283798 <alt_icache_flush>
  282c28:	e037883a 	mov	sp,fp
  282c2c:	dfc00117 	ldw	ra,4(sp)
  282c30:	df000017 	ldw	fp,0(sp)
  282c34:	dec00204 	addi	sp,sp,8
  282c38:	f800283a 	ret

00282c3c <alt_ic_isr_register>:
  282c3c:	defff904 	addi	sp,sp,-28
  282c40:	dfc00615 	stw	ra,24(sp)
  282c44:	df000515 	stw	fp,20(sp)
  282c48:	df000504 	addi	fp,sp,20
  282c4c:	e13ffc15 	stw	r4,-16(fp)
  282c50:	e17ffd15 	stw	r5,-12(fp)
  282c54:	e1bffe15 	stw	r6,-8(fp)
  282c58:	e1ffff15 	stw	r7,-4(fp)
  282c5c:	e0800217 	ldw	r2,8(fp)
  282c60:	d8800015 	stw	r2,0(sp)
  282c64:	e13ffc17 	ldw	r4,-16(fp)
  282c68:	e17ffd17 	ldw	r5,-12(fp)
  282c6c:	e1bffe17 	ldw	r6,-8(fp)
  282c70:	e1ffff17 	ldw	r7,-4(fp)
  282c74:	0282e100 	call	282e10 <alt_iic_isr_register>
  282c78:	e037883a 	mov	sp,fp
  282c7c:	dfc00117 	ldw	ra,4(sp)
  282c80:	df000017 	ldw	fp,0(sp)
  282c84:	dec00204 	addi	sp,sp,8
  282c88:	f800283a 	ret

00282c8c <alt_ic_irq_enable>:
  282c8c:	defff904 	addi	sp,sp,-28
  282c90:	df000615 	stw	fp,24(sp)
  282c94:	df000604 	addi	fp,sp,24
  282c98:	e13ffe15 	stw	r4,-8(fp)
  282c9c:	e17fff15 	stw	r5,-4(fp)
  282ca0:	e0bfff17 	ldw	r2,-4(fp)
  282ca4:	e0bffc15 	stw	r2,-16(fp)
  282ca8:	0005303a 	rdctl	r2,status
  282cac:	e0bffb15 	stw	r2,-20(fp)
  282cb0:	e0fffb17 	ldw	r3,-20(fp)
  282cb4:	00bfff84 	movi	r2,-2
  282cb8:	1884703a 	and	r2,r3,r2
  282cbc:	1001703a 	wrctl	status,r2
  282cc0:	e0bffb17 	ldw	r2,-20(fp)
  282cc4:	e0bffd15 	stw	r2,-12(fp)
  282cc8:	e0fffc17 	ldw	r3,-16(fp)
  282ccc:	00800044 	movi	r2,1
  282cd0:	10c4983a 	sll	r2,r2,r3
  282cd4:	1007883a 	mov	r3,r2
  282cd8:	00800a34 	movhi	r2,40
  282cdc:	109c5f04 	addi	r2,r2,29052
  282ce0:	10800017 	ldw	r2,0(r2)
  282ce4:	1886b03a 	or	r3,r3,r2
  282ce8:	00800a34 	movhi	r2,40
  282cec:	109c5f04 	addi	r2,r2,29052
  282cf0:	10c00015 	stw	r3,0(r2)
  282cf4:	00800a34 	movhi	r2,40
  282cf8:	109c5f04 	addi	r2,r2,29052
  282cfc:	10800017 	ldw	r2,0(r2)
  282d00:	100170fa 	wrctl	ienable,r2
  282d04:	e0bffd17 	ldw	r2,-12(fp)
  282d08:	e0bffa15 	stw	r2,-24(fp)
  282d0c:	e0bffa17 	ldw	r2,-24(fp)
  282d10:	1001703a 	wrctl	status,r2
  282d14:	0005883a 	mov	r2,zero
  282d18:	e037883a 	mov	sp,fp
  282d1c:	df000017 	ldw	fp,0(sp)
  282d20:	dec00104 	addi	sp,sp,4
  282d24:	f800283a 	ret

00282d28 <alt_ic_irq_disable>:
  282d28:	defff904 	addi	sp,sp,-28
  282d2c:	df000615 	stw	fp,24(sp)
  282d30:	df000604 	addi	fp,sp,24
  282d34:	e13ffe15 	stw	r4,-8(fp)
  282d38:	e17fff15 	stw	r5,-4(fp)
  282d3c:	e0bfff17 	ldw	r2,-4(fp)
  282d40:	e0bffc15 	stw	r2,-16(fp)
  282d44:	0005303a 	rdctl	r2,status
  282d48:	e0bffb15 	stw	r2,-20(fp)
  282d4c:	e0fffb17 	ldw	r3,-20(fp)
  282d50:	00bfff84 	movi	r2,-2
  282d54:	1884703a 	and	r2,r3,r2
  282d58:	1001703a 	wrctl	status,r2
  282d5c:	e0bffb17 	ldw	r2,-20(fp)
  282d60:	e0bffd15 	stw	r2,-12(fp)
  282d64:	e0fffc17 	ldw	r3,-16(fp)
  282d68:	00800044 	movi	r2,1
  282d6c:	10c4983a 	sll	r2,r2,r3
  282d70:	0084303a 	nor	r2,zero,r2
  282d74:	1007883a 	mov	r3,r2
  282d78:	00800a34 	movhi	r2,40
  282d7c:	109c5f04 	addi	r2,r2,29052
  282d80:	10800017 	ldw	r2,0(r2)
  282d84:	1886703a 	and	r3,r3,r2
  282d88:	00800a34 	movhi	r2,40
  282d8c:	109c5f04 	addi	r2,r2,29052
  282d90:	10c00015 	stw	r3,0(r2)
  282d94:	00800a34 	movhi	r2,40
  282d98:	109c5f04 	addi	r2,r2,29052
  282d9c:	10800017 	ldw	r2,0(r2)
  282da0:	100170fa 	wrctl	ienable,r2
  282da4:	e0bffd17 	ldw	r2,-12(fp)
  282da8:	e0bffa15 	stw	r2,-24(fp)
  282dac:	e0bffa17 	ldw	r2,-24(fp)
  282db0:	1001703a 	wrctl	status,r2
  282db4:	0005883a 	mov	r2,zero
  282db8:	e037883a 	mov	sp,fp
  282dbc:	df000017 	ldw	fp,0(sp)
  282dc0:	dec00104 	addi	sp,sp,4
  282dc4:	f800283a 	ret

00282dc8 <alt_ic_irq_enabled>:
  282dc8:	defffc04 	addi	sp,sp,-16
  282dcc:	df000315 	stw	fp,12(sp)
  282dd0:	df000304 	addi	fp,sp,12
  282dd4:	e13ffe15 	stw	r4,-8(fp)
  282dd8:	e17fff15 	stw	r5,-4(fp)
  282ddc:	000530fa 	rdctl	r2,ienable
  282de0:	e0bffd15 	stw	r2,-12(fp)
  282de4:	e0ffff17 	ldw	r3,-4(fp)
  282de8:	00800044 	movi	r2,1
  282dec:	10c4983a 	sll	r2,r2,r3
  282df0:	1007883a 	mov	r3,r2
  282df4:	e0bffd17 	ldw	r2,-12(fp)
  282df8:	1884703a 	and	r2,r3,r2
  282dfc:	1004c03a 	cmpne	r2,r2,zero
  282e00:	e037883a 	mov	sp,fp
  282e04:	df000017 	ldw	fp,0(sp)
  282e08:	dec00104 	addi	sp,sp,4
  282e0c:	f800283a 	ret

00282e10 <alt_iic_isr_register>:
  282e10:	defff404 	addi	sp,sp,-48
  282e14:	dfc00b15 	stw	ra,44(sp)
  282e18:	df000a15 	stw	fp,40(sp)
  282e1c:	df000a04 	addi	fp,sp,40
  282e20:	e13ffb15 	stw	r4,-20(fp)
  282e24:	e17ffc15 	stw	r5,-16(fp)
  282e28:	e1bffd15 	stw	r6,-12(fp)
  282e2c:	e1fffe15 	stw	r7,-8(fp)
  282e30:	00bffa84 	movi	r2,-22
  282e34:	e0bffa15 	stw	r2,-24(fp)
  282e38:	e0bffc17 	ldw	r2,-16(fp)
  282e3c:	e0bff915 	stw	r2,-28(fp)
  282e40:	e0bff917 	ldw	r2,-28(fp)
  282e44:	10800808 	cmpgei	r2,r2,32
  282e48:	1000291e 	bne	r2,zero,282ef0 <alt_iic_isr_register+0xe0>
  282e4c:	0005303a 	rdctl	r2,status
  282e50:	e0bff715 	stw	r2,-36(fp)
  282e54:	e0fff717 	ldw	r3,-36(fp)
  282e58:	00bfff84 	movi	r2,-2
  282e5c:	1884703a 	and	r2,r3,r2
  282e60:	1001703a 	wrctl	status,r2
  282e64:	e0bff717 	ldw	r2,-36(fp)
  282e68:	e0bff815 	stw	r2,-32(fp)
  282e6c:	e0bff917 	ldw	r2,-28(fp)
  282e70:	00c00a34 	movhi	r3,40
  282e74:	18dc6304 	addi	r3,r3,29068
  282e78:	100490fa 	slli	r2,r2,3
  282e7c:	10c7883a 	add	r3,r2,r3
  282e80:	e0bffd17 	ldw	r2,-12(fp)
  282e84:	18800015 	stw	r2,0(r3)
  282e88:	e0bff917 	ldw	r2,-28(fp)
  282e8c:	00c00a34 	movhi	r3,40
  282e90:	18dc6304 	addi	r3,r3,29068
  282e94:	100490fa 	slli	r2,r2,3
  282e98:	10c5883a 	add	r2,r2,r3
  282e9c:	10c00104 	addi	r3,r2,4
  282ea0:	e0bffe17 	ldw	r2,-8(fp)
  282ea4:	18800015 	stw	r2,0(r3)
  282ea8:	e0bffd17 	ldw	r2,-12(fp)
  282eac:	1005003a 	cmpeq	r2,r2,zero
  282eb0:	1000051e 	bne	r2,zero,282ec8 <alt_iic_isr_register+0xb8>
  282eb4:	e17ff917 	ldw	r5,-28(fp)
  282eb8:	e13ffb17 	ldw	r4,-20(fp)
  282ebc:	0282c8c0 	call	282c8c <alt_ic_irq_enable>
  282ec0:	e0bfff15 	stw	r2,-4(fp)
  282ec4:	00000406 	br	282ed8 <alt_iic_isr_register+0xc8>
  282ec8:	e17ff917 	ldw	r5,-28(fp)
  282ecc:	e13ffb17 	ldw	r4,-20(fp)
  282ed0:	0282d280 	call	282d28 <alt_ic_irq_disable>
  282ed4:	e0bfff15 	stw	r2,-4(fp)
  282ed8:	e0bfff17 	ldw	r2,-4(fp)
  282edc:	e0bffa15 	stw	r2,-24(fp)
  282ee0:	e0bff817 	ldw	r2,-32(fp)
  282ee4:	e0bff615 	stw	r2,-40(fp)
  282ee8:	e0bff617 	ldw	r2,-40(fp)
  282eec:	1001703a 	wrctl	status,r2
  282ef0:	e0bffa17 	ldw	r2,-24(fp)
  282ef4:	e037883a 	mov	sp,fp
  282ef8:	dfc00117 	ldw	ra,4(sp)
  282efc:	df000017 	ldw	fp,0(sp)
  282f00:	dec00204 	addi	sp,sp,8
  282f04:	f800283a 	ret

00282f08 <alt_open_fd>:
  282f08:	defff904 	addi	sp,sp,-28
  282f0c:	dfc00615 	stw	ra,24(sp)
  282f10:	df000515 	stw	fp,20(sp)
  282f14:	df000504 	addi	fp,sp,20
  282f18:	e13ffc15 	stw	r4,-16(fp)
  282f1c:	e17ffd15 	stw	r5,-12(fp)
  282f20:	e1bffe15 	stw	r6,-8(fp)
  282f24:	e1ffff15 	stw	r7,-4(fp)
  282f28:	e13ffd17 	ldw	r4,-12(fp)
  282f2c:	e17ffe17 	ldw	r5,-8(fp)
  282f30:	e1bfff17 	ldw	r6,-4(fp)
  282f34:	02831200 	call	283120 <open>
  282f38:	e0bffb15 	stw	r2,-20(fp)
  282f3c:	e0bffb17 	ldw	r2,-20(fp)
  282f40:	1004803a 	cmplt	r2,r2,zero
  282f44:	10001c1e 	bne	r2,zero,282fb8 <alt_open_fd+0xb0>
  282f48:	e0bffb17 	ldw	r2,-20(fp)
  282f4c:	00c00a34 	movhi	r3,40
  282f50:	18d50304 	addi	r3,r3,21516
  282f54:	10800324 	muli	r2,r2,12
  282f58:	10c5883a 	add	r2,r2,r3
  282f5c:	10c00017 	ldw	r3,0(r2)
  282f60:	e0bffc17 	ldw	r2,-16(fp)
  282f64:	10c00015 	stw	r3,0(r2)
  282f68:	e0bffb17 	ldw	r2,-20(fp)
  282f6c:	00c00a34 	movhi	r3,40
  282f70:	18d50304 	addi	r3,r3,21516
  282f74:	10800324 	muli	r2,r2,12
  282f78:	10c5883a 	add	r2,r2,r3
  282f7c:	10800104 	addi	r2,r2,4
  282f80:	10c00017 	ldw	r3,0(r2)
  282f84:	e0bffc17 	ldw	r2,-16(fp)
  282f88:	10c00115 	stw	r3,4(r2)
  282f8c:	e0bffb17 	ldw	r2,-20(fp)
  282f90:	00c00a34 	movhi	r3,40
  282f94:	18d50304 	addi	r3,r3,21516
  282f98:	10800324 	muli	r2,r2,12
  282f9c:	10c5883a 	add	r2,r2,r3
  282fa0:	10800204 	addi	r2,r2,8
  282fa4:	10c00017 	ldw	r3,0(r2)
  282fa8:	e0bffc17 	ldw	r2,-16(fp)
  282fac:	10c00215 	stw	r3,8(r2)
  282fb0:	e13ffb17 	ldw	r4,-20(fp)
  282fb4:	02833080 	call	283308 <alt_release_fd>
  282fb8:	e037883a 	mov	sp,fp
  282fbc:	dfc00117 	ldw	ra,4(sp)
  282fc0:	df000017 	ldw	fp,0(sp)
  282fc4:	dec00204 	addi	sp,sp,8
  282fc8:	f800283a 	ret

00282fcc <alt_io_redirect>:
  282fcc:	defffb04 	addi	sp,sp,-20
  282fd0:	dfc00415 	stw	ra,16(sp)
  282fd4:	df000315 	stw	fp,12(sp)
  282fd8:	df000304 	addi	fp,sp,12
  282fdc:	e13ffd15 	stw	r4,-12(fp)
  282fe0:	e17ffe15 	stw	r5,-8(fp)
  282fe4:	e1bfff15 	stw	r6,-4(fp)
  282fe8:	01000a34 	movhi	r4,40
  282fec:	21150604 	addi	r4,r4,21528
  282ff0:	e17ffd17 	ldw	r5,-12(fp)
  282ff4:	01800044 	movi	r6,1
  282ff8:	01c07fc4 	movi	r7,511
  282ffc:	0282f080 	call	282f08 <alt_open_fd>
  283000:	01000a34 	movhi	r4,40
  283004:	21150304 	addi	r4,r4,21516
  283008:	e17ffe17 	ldw	r5,-8(fp)
  28300c:	000d883a 	mov	r6,zero
  283010:	01c07fc4 	movi	r7,511
  283014:	0282f080 	call	282f08 <alt_open_fd>
  283018:	01000a34 	movhi	r4,40
  28301c:	21150904 	addi	r4,r4,21540
  283020:	e17fff17 	ldw	r5,-4(fp)
  283024:	01800044 	movi	r6,1
  283028:	01c07fc4 	movi	r7,511
  28302c:	0282f080 	call	282f08 <alt_open_fd>
  283030:	e037883a 	mov	sp,fp
  283034:	dfc00117 	ldw	ra,4(sp)
  283038:	df000017 	ldw	fp,0(sp)
  28303c:	dec00204 	addi	sp,sp,8
  283040:	f800283a 	ret

00283044 <alt_file_locked>:
  283044:	defffc04 	addi	sp,sp,-16
  283048:	df000315 	stw	fp,12(sp)
  28304c:	df000304 	addi	fp,sp,12
  283050:	e13ffe15 	stw	r4,-8(fp)
  283054:	e0bffe17 	ldw	r2,-8(fp)
  283058:	10800217 	ldw	r2,8(r2)
  28305c:	10d00034 	orhi	r3,r2,16384
  283060:	e0bffe17 	ldw	r2,-8(fp)
  283064:	10c00215 	stw	r3,8(r2)
  283068:	e03ffd15 	stw	zero,-12(fp)
  28306c:	00002006 	br	2830f0 <alt_file_locked+0xac>
  283070:	e0bffd17 	ldw	r2,-12(fp)
  283074:	00c00a34 	movhi	r3,40
  283078:	18d50304 	addi	r3,r3,21516
  28307c:	10800324 	muli	r2,r2,12
  283080:	10c5883a 	add	r2,r2,r3
  283084:	10c00017 	ldw	r3,0(r2)
  283088:	e0bffe17 	ldw	r2,-8(fp)
  28308c:	10800017 	ldw	r2,0(r2)
  283090:	1880141e 	bne	r3,r2,2830e4 <alt_file_locked+0xa0>
  283094:	e0bffd17 	ldw	r2,-12(fp)
  283098:	00c00a34 	movhi	r3,40
  28309c:	18d50304 	addi	r3,r3,21516
  2830a0:	10800324 	muli	r2,r2,12
  2830a4:	10c5883a 	add	r2,r2,r3
  2830a8:	10800204 	addi	r2,r2,8
  2830ac:	10800017 	ldw	r2,0(r2)
  2830b0:	1004403a 	cmpge	r2,r2,zero
  2830b4:	10000b1e 	bne	r2,zero,2830e4 <alt_file_locked+0xa0>
  2830b8:	e0bffd17 	ldw	r2,-12(fp)
  2830bc:	10800324 	muli	r2,r2,12
  2830c0:	1007883a 	mov	r3,r2
  2830c4:	00800a34 	movhi	r2,40
  2830c8:	10950304 	addi	r2,r2,21516
  2830cc:	1887883a 	add	r3,r3,r2
  2830d0:	e0bffe17 	ldw	r2,-8(fp)
  2830d4:	18800326 	beq	r3,r2,2830e4 <alt_file_locked+0xa0>
  2830d8:	00bffcc4 	movi	r2,-13
  2830dc:	e0bfff15 	stw	r2,-4(fp)
  2830e0:	00000a06 	br	28310c <alt_file_locked+0xc8>
  2830e4:	e0bffd17 	ldw	r2,-12(fp)
  2830e8:	10800044 	addi	r2,r2,1
  2830ec:	e0bffd15 	stw	r2,-12(fp)
  2830f0:	00800a34 	movhi	r2,40
  2830f4:	10966804 	addi	r2,r2,22944
  2830f8:	10800017 	ldw	r2,0(r2)
  2830fc:	1007883a 	mov	r3,r2
  283100:	e0bffd17 	ldw	r2,-12(fp)
  283104:	18bfda2e 	bgeu	r3,r2,283070 <alt_file_locked+0x2c>
  283108:	e03fff15 	stw	zero,-4(fp)
  28310c:	e0bfff17 	ldw	r2,-4(fp)
  283110:	e037883a 	mov	sp,fp
  283114:	df000017 	ldw	fp,0(sp)
  283118:	dec00104 	addi	sp,sp,4
  28311c:	f800283a 	ret

00283120 <open>:
  283120:	defff404 	addi	sp,sp,-48
  283124:	dfc00b15 	stw	ra,44(sp)
  283128:	df000a15 	stw	fp,40(sp)
  28312c:	df000a04 	addi	fp,sp,40
  283130:	e13ffb15 	stw	r4,-20(fp)
  283134:	e17ffc15 	stw	r5,-16(fp)
  283138:	e1bffd15 	stw	r6,-12(fp)
  28313c:	00bfffc4 	movi	r2,-1
  283140:	e0bff815 	stw	r2,-32(fp)
  283144:	00bffb44 	movi	r2,-19
  283148:	e0bff715 	stw	r2,-36(fp)
  28314c:	e03ff615 	stw	zero,-40(fp)
  283150:	e13ffb17 	ldw	r4,-20(fp)
  283154:	01400a34 	movhi	r5,40
  283158:	29566604 	addi	r5,r5,22936
  28315c:	028352c0 	call	28352c <alt_find_dev>
  283160:	e0bffa15 	stw	r2,-24(fp)
  283164:	e0bffa17 	ldw	r2,-24(fp)
  283168:	1004c03a 	cmpne	r2,r2,zero
  28316c:	1000051e 	bne	r2,zero,283184 <open+0x64>
  283170:	e13ffb17 	ldw	r4,-20(fp)
  283174:	02835c00 	call	2835c0 <alt_find_file>
  283178:	e0bffa15 	stw	r2,-24(fp)
  28317c:	00800044 	movi	r2,1
  283180:	e0bff615 	stw	r2,-40(fp)
  283184:	e0bffa17 	ldw	r2,-24(fp)
  283188:	1005003a 	cmpeq	r2,r2,zero
  28318c:	1000301e 	bne	r2,zero,283250 <open+0x130>
  283190:	e13ffa17 	ldw	r4,-24(fp)
  283194:	02836e00 	call	2836e0 <alt_get_fd>
  283198:	e0bff815 	stw	r2,-32(fp)
  28319c:	e0bff817 	ldw	r2,-32(fp)
  2831a0:	1004403a 	cmpge	r2,r2,zero
  2831a4:	1000031e 	bne	r2,zero,2831b4 <open+0x94>
  2831a8:	e0bff817 	ldw	r2,-32(fp)
  2831ac:	e0bff715 	stw	r2,-36(fp)
  2831b0:	00002906 	br	283258 <open+0x138>
  2831b4:	e0bff817 	ldw	r2,-32(fp)
  2831b8:	10800324 	muli	r2,r2,12
  2831bc:	1007883a 	mov	r3,r2
  2831c0:	00800a34 	movhi	r2,40
  2831c4:	10950304 	addi	r2,r2,21516
  2831c8:	1885883a 	add	r2,r3,r2
  2831cc:	e0bff915 	stw	r2,-28(fp)
  2831d0:	e0fffc17 	ldw	r3,-16(fp)
  2831d4:	00900034 	movhi	r2,16384
  2831d8:	10bfffc4 	addi	r2,r2,-1
  2831dc:	1886703a 	and	r3,r3,r2
  2831e0:	e0bff917 	ldw	r2,-28(fp)
  2831e4:	10c00215 	stw	r3,8(r2)
  2831e8:	e0bff617 	ldw	r2,-40(fp)
  2831ec:	1004c03a 	cmpne	r2,r2,zero
  2831f0:	1000061e 	bne	r2,zero,28320c <open+0xec>
  2831f4:	e13ff917 	ldw	r4,-28(fp)
  2831f8:	02830440 	call	283044 <alt_file_locked>
  2831fc:	e0bff715 	stw	r2,-36(fp)
  283200:	e0bff717 	ldw	r2,-36(fp)
  283204:	1004803a 	cmplt	r2,r2,zero
  283208:	1000131e 	bne	r2,zero,283258 <open+0x138>
  28320c:	e0bffa17 	ldw	r2,-24(fp)
  283210:	10800317 	ldw	r2,12(r2)
  283214:	1005003a 	cmpeq	r2,r2,zero
  283218:	1000091e 	bne	r2,zero,283240 <open+0x120>
  28321c:	e0bffa17 	ldw	r2,-24(fp)
  283220:	10800317 	ldw	r2,12(r2)
  283224:	e13ff917 	ldw	r4,-28(fp)
  283228:	e17ffb17 	ldw	r5,-20(fp)
  28322c:	e1bffc17 	ldw	r6,-16(fp)
  283230:	e1fffd17 	ldw	r7,-12(fp)
  283234:	103ee83a 	callr	r2
  283238:	e0bfff15 	stw	r2,-4(fp)
  28323c:	00000106 	br	283244 <open+0x124>
  283240:	e03fff15 	stw	zero,-4(fp)
  283244:	e0bfff17 	ldw	r2,-4(fp)
  283248:	e0bff715 	stw	r2,-36(fp)
  28324c:	00000206 	br	283258 <open+0x138>
  283250:	00bffb44 	movi	r2,-19
  283254:	e0bff715 	stw	r2,-36(fp)
  283258:	e0bff717 	ldw	r2,-36(fp)
  28325c:	1004403a 	cmpge	r2,r2,zero
  283260:	1000091e 	bne	r2,zero,283288 <open+0x168>
  283264:	e13ff817 	ldw	r4,-32(fp)
  283268:	02833080 	call	283308 <alt_release_fd>
  28326c:	02832a80 	call	2832a8 <alt_get_errno>
  283270:	e0fff717 	ldw	r3,-36(fp)
  283274:	00c7c83a 	sub	r3,zero,r3
  283278:	10c00015 	stw	r3,0(r2)
  28327c:	00bfffc4 	movi	r2,-1
  283280:	e0bffe15 	stw	r2,-8(fp)
  283284:	00000206 	br	283290 <open+0x170>
  283288:	e0bff817 	ldw	r2,-32(fp)
  28328c:	e0bffe15 	stw	r2,-8(fp)
  283290:	e0bffe17 	ldw	r2,-8(fp)
  283294:	e037883a 	mov	sp,fp
  283298:	dfc00117 	ldw	ra,4(sp)
  28329c:	df000017 	ldw	fp,0(sp)
  2832a0:	dec00204 	addi	sp,sp,8
  2832a4:	f800283a 	ret

002832a8 <alt_get_errno>:
  2832a8:	defffd04 	addi	sp,sp,-12
  2832ac:	dfc00215 	stw	ra,8(sp)
  2832b0:	df000115 	stw	fp,4(sp)
  2832b4:	df000104 	addi	fp,sp,4
  2832b8:	00800a34 	movhi	r2,40
  2832bc:	10966904 	addi	r2,r2,22948
  2832c0:	10800017 	ldw	r2,0(r2)
  2832c4:	1005003a 	cmpeq	r2,r2,zero
  2832c8:	1000061e 	bne	r2,zero,2832e4 <alt_get_errno+0x3c>
  2832cc:	00800a34 	movhi	r2,40
  2832d0:	10966904 	addi	r2,r2,22948
  2832d4:	10800017 	ldw	r2,0(r2)
  2832d8:	103ee83a 	callr	r2
  2832dc:	e0bfff15 	stw	r2,-4(fp)
  2832e0:	00000306 	br	2832f0 <alt_get_errno+0x48>
  2832e4:	00800a34 	movhi	r2,40
  2832e8:	109c6204 	addi	r2,r2,29064
  2832ec:	e0bfff15 	stw	r2,-4(fp)
  2832f0:	e0bfff17 	ldw	r2,-4(fp)
  2832f4:	e037883a 	mov	sp,fp
  2832f8:	dfc00117 	ldw	ra,4(sp)
  2832fc:	df000017 	ldw	fp,0(sp)
  283300:	dec00204 	addi	sp,sp,8
  283304:	f800283a 	ret

00283308 <alt_release_fd>:
  283308:	defffe04 	addi	sp,sp,-8
  28330c:	df000115 	stw	fp,4(sp)
  283310:	df000104 	addi	fp,sp,4
  283314:	e13fff15 	stw	r4,-4(fp)
  283318:	e0bfff17 	ldw	r2,-4(fp)
  28331c:	108000d0 	cmplti	r2,r2,3
  283320:	10000d1e 	bne	r2,zero,283358 <alt_release_fd+0x50>
  283324:	e0bfff17 	ldw	r2,-4(fp)
  283328:	00c00a34 	movhi	r3,40
  28332c:	18d50304 	addi	r3,r3,21516
  283330:	10800324 	muli	r2,r2,12
  283334:	10c5883a 	add	r2,r2,r3
  283338:	10800204 	addi	r2,r2,8
  28333c:	10000015 	stw	zero,0(r2)
  283340:	e0bfff17 	ldw	r2,-4(fp)
  283344:	00c00a34 	movhi	r3,40
  283348:	18d50304 	addi	r3,r3,21516
  28334c:	10800324 	muli	r2,r2,12
  283350:	10c5883a 	add	r2,r2,r3
  283354:	10000015 	stw	zero,0(r2)
  283358:	e037883a 	mov	sp,fp
  28335c:	df000017 	ldw	fp,0(sp)
  283360:	dec00104 	addi	sp,sp,4
  283364:	f800283a 	ret

00283368 <alt_alarm_stop>:
  283368:	defffa04 	addi	sp,sp,-24
  28336c:	df000515 	stw	fp,20(sp)
  283370:	df000504 	addi	fp,sp,20
  283374:	e13fff15 	stw	r4,-4(fp)
  283378:	0005303a 	rdctl	r2,status
  28337c:	e0bffd15 	stw	r2,-12(fp)
  283380:	e0fffd17 	ldw	r3,-12(fp)
  283384:	00bfff84 	movi	r2,-2
  283388:	1884703a 	and	r2,r3,r2
  28338c:	1001703a 	wrctl	status,r2
  283390:	e0bffd17 	ldw	r2,-12(fp)
  283394:	e0bffe15 	stw	r2,-8(fp)
  283398:	e0bfff17 	ldw	r2,-4(fp)
  28339c:	e0bffc15 	stw	r2,-16(fp)
  2833a0:	e0bffc17 	ldw	r2,-16(fp)
  2833a4:	10c00017 	ldw	r3,0(r2)
  2833a8:	e0bffc17 	ldw	r2,-16(fp)
  2833ac:	10800117 	ldw	r2,4(r2)
  2833b0:	18800115 	stw	r2,4(r3)
  2833b4:	e0bffc17 	ldw	r2,-16(fp)
  2833b8:	10c00117 	ldw	r3,4(r2)
  2833bc:	e0bffc17 	ldw	r2,-16(fp)
  2833c0:	10800017 	ldw	r2,0(r2)
  2833c4:	18800015 	stw	r2,0(r3)
  2833c8:	e0fffc17 	ldw	r3,-16(fp)
  2833cc:	e0bffc17 	ldw	r2,-16(fp)
  2833d0:	18800115 	stw	r2,4(r3)
  2833d4:	e0fffc17 	ldw	r3,-16(fp)
  2833d8:	e0bffc17 	ldw	r2,-16(fp)
  2833dc:	18800015 	stw	r2,0(r3)
  2833e0:	e0bffe17 	ldw	r2,-8(fp)
  2833e4:	e0bffb15 	stw	r2,-20(fp)
  2833e8:	e0bffb17 	ldw	r2,-20(fp)
  2833ec:	1001703a 	wrctl	status,r2
  2833f0:	e037883a 	mov	sp,fp
  2833f4:	df000017 	ldw	fp,0(sp)
  2833f8:	dec00104 	addi	sp,sp,4
  2833fc:	f800283a 	ret

00283400 <alt_tick>:
  283400:	defffb04 	addi	sp,sp,-20
  283404:	dfc00415 	stw	ra,16(sp)
  283408:	df000315 	stw	fp,12(sp)
  28340c:	df000304 	addi	fp,sp,12
  283410:	d0a00817 	ldw	r2,-32736(gp)
  283414:	e0bffe15 	stw	r2,-8(fp)
  283418:	d0a5fe17 	ldw	r2,-26632(gp)
  28341c:	10800044 	addi	r2,r2,1
  283420:	d0a5fe15 	stw	r2,-26632(gp)
  283424:	00003106 	br	2834ec <alt_tick+0xec>
  283428:	e0bffe17 	ldw	r2,-8(fp)
  28342c:	10800017 	ldw	r2,0(r2)
  283430:	e0bfff15 	stw	r2,-4(fp)
  283434:	e0bffe17 	ldw	r2,-8(fp)
  283438:	10800403 	ldbu	r2,16(r2)
  28343c:	10803fcc 	andi	r2,r2,255
  283440:	1005003a 	cmpeq	r2,r2,zero
  283444:	1000051e 	bne	r2,zero,28345c <alt_tick+0x5c>
  283448:	d0a5fe17 	ldw	r2,-26632(gp)
  28344c:	1004c03a 	cmpne	r2,r2,zero
  283450:	1000021e 	bne	r2,zero,28345c <alt_tick+0x5c>
  283454:	e0bffe17 	ldw	r2,-8(fp)
  283458:	10000405 	stb	zero,16(r2)
  28345c:	e0bffe17 	ldw	r2,-8(fp)
  283460:	10c00217 	ldw	r3,8(r2)
  283464:	d0a5fe17 	ldw	r2,-26632(gp)
  283468:	10c01e36 	bltu	r2,r3,2834e4 <alt_tick+0xe4>
  28346c:	e0bffe17 	ldw	r2,-8(fp)
  283470:	10800403 	ldbu	r2,16(r2)
  283474:	10803fcc 	andi	r2,r2,255
  283478:	1004c03a 	cmpne	r2,r2,zero
  28347c:	1000191e 	bne	r2,zero,2834e4 <alt_tick+0xe4>
  283480:	e0bffe17 	ldw	r2,-8(fp)
  283484:	10c00317 	ldw	r3,12(r2)
  283488:	e0bffe17 	ldw	r2,-8(fp)
  28348c:	11000517 	ldw	r4,20(r2)
  283490:	183ee83a 	callr	r3
  283494:	e0bffd15 	stw	r2,-12(fp)
  283498:	e0bffd17 	ldw	r2,-12(fp)
  28349c:	1004c03a 	cmpne	r2,r2,zero
  2834a0:	1000031e 	bne	r2,zero,2834b0 <alt_tick+0xb0>
  2834a4:	e13ffe17 	ldw	r4,-8(fp)
  2834a8:	02833680 	call	283368 <alt_alarm_stop>
  2834ac:	00000d06 	br	2834e4 <alt_tick+0xe4>
  2834b0:	e0bffe17 	ldw	r2,-8(fp)
  2834b4:	10c00217 	ldw	r3,8(r2)
  2834b8:	e0bffd17 	ldw	r2,-12(fp)
  2834bc:	1887883a 	add	r3,r3,r2
  2834c0:	e0bffe17 	ldw	r2,-8(fp)
  2834c4:	10c00215 	stw	r3,8(r2)
  2834c8:	e0bffe17 	ldw	r2,-8(fp)
  2834cc:	10c00217 	ldw	r3,8(r2)
  2834d0:	d0a5fe17 	ldw	r2,-26632(gp)
  2834d4:	1880032e 	bgeu	r3,r2,2834e4 <alt_tick+0xe4>
  2834d8:	e0fffe17 	ldw	r3,-8(fp)
  2834dc:	00800044 	movi	r2,1
  2834e0:	18800405 	stb	r2,16(r3)
  2834e4:	e0bfff17 	ldw	r2,-4(fp)
  2834e8:	e0bffe15 	stw	r2,-8(fp)
  2834ec:	d0e00804 	addi	r3,gp,-32736
  2834f0:	e0bffe17 	ldw	r2,-8(fp)
  2834f4:	10ffcc1e 	bne	r2,r3,283428 <alt_tick+0x28>
  2834f8:	e037883a 	mov	sp,fp
  2834fc:	dfc00117 	ldw	ra,4(sp)
  283500:	df000017 	ldw	fp,0(sp)
  283504:	dec00204 	addi	sp,sp,8
  283508:	f800283a 	ret

0028350c <altera_nios2_qsys_irq_init>:
  28350c:	deffff04 	addi	sp,sp,-4
  283510:	df000015 	stw	fp,0(sp)
  283514:	d839883a 	mov	fp,sp
  283518:	000170fa 	wrctl	ienable,zero
  28351c:	e037883a 	mov	sp,fp
  283520:	df000017 	ldw	fp,0(sp)
  283524:	dec00104 	addi	sp,sp,4
  283528:	f800283a 	ret

0028352c <alt_find_dev>:
  28352c:	defff904 	addi	sp,sp,-28
  283530:	dfc00615 	stw	ra,24(sp)
  283534:	df000515 	stw	fp,20(sp)
  283538:	df000504 	addi	fp,sp,20
  28353c:	e13ffd15 	stw	r4,-12(fp)
  283540:	e17ffe15 	stw	r5,-8(fp)
  283544:	e0bffe17 	ldw	r2,-8(fp)
  283548:	10800017 	ldw	r2,0(r2)
  28354c:	e0bffc15 	stw	r2,-16(fp)
  283550:	e13ffd17 	ldw	r4,-12(fp)
  283554:	0283a200 	call	283a20 <strlen>
  283558:	10800044 	addi	r2,r2,1
  28355c:	e0bffb15 	stw	r2,-20(fp)
  283560:	00000d06 	br	283598 <alt_find_dev+0x6c>
  283564:	e0bffc17 	ldw	r2,-16(fp)
  283568:	11000217 	ldw	r4,8(r2)
  28356c:	e1bffb17 	ldw	r6,-20(fp)
  283570:	e17ffd17 	ldw	r5,-12(fp)
  283574:	02838740 	call	283874 <memcmp>
  283578:	1004c03a 	cmpne	r2,r2,zero
  28357c:	1000031e 	bne	r2,zero,28358c <alt_find_dev+0x60>
  283580:	e0bffc17 	ldw	r2,-16(fp)
  283584:	e0bfff15 	stw	r2,-4(fp)
  283588:	00000706 	br	2835a8 <alt_find_dev+0x7c>
  28358c:	e0bffc17 	ldw	r2,-16(fp)
  283590:	10800017 	ldw	r2,0(r2)
  283594:	e0bffc15 	stw	r2,-16(fp)
  283598:	e0fffe17 	ldw	r3,-8(fp)
  28359c:	e0bffc17 	ldw	r2,-16(fp)
  2835a0:	10fff01e 	bne	r2,r3,283564 <alt_find_dev+0x38>
  2835a4:	e03fff15 	stw	zero,-4(fp)
  2835a8:	e0bfff17 	ldw	r2,-4(fp)
  2835ac:	e037883a 	mov	sp,fp
  2835b0:	dfc00117 	ldw	ra,4(sp)
  2835b4:	df000017 	ldw	fp,0(sp)
  2835b8:	dec00204 	addi	sp,sp,8
  2835bc:	f800283a 	ret

002835c0 <alt_find_file>:
  2835c0:	defffa04 	addi	sp,sp,-24
  2835c4:	dfc00515 	stw	ra,20(sp)
  2835c8:	df000415 	stw	fp,16(sp)
  2835cc:	df000404 	addi	fp,sp,16
  2835d0:	e13ffe15 	stw	r4,-8(fp)
  2835d4:	00800a34 	movhi	r2,40
  2835d8:	10966404 	addi	r2,r2,22928
  2835dc:	10800017 	ldw	r2,0(r2)
  2835e0:	e0bffd15 	stw	r2,-12(fp)
  2835e4:	00003306 	br	2836b4 <alt_find_file+0xf4>
  2835e8:	e0bffd17 	ldw	r2,-12(fp)
  2835ec:	11000217 	ldw	r4,8(r2)
  2835f0:	0283a200 	call	283a20 <strlen>
  2835f4:	e0bffc15 	stw	r2,-16(fp)
  2835f8:	e0bffd17 	ldw	r2,-12(fp)
  2835fc:	10c00217 	ldw	r3,8(r2)
  283600:	e0bffc17 	ldw	r2,-16(fp)
  283604:	1885883a 	add	r2,r3,r2
  283608:	10bfffc4 	addi	r2,r2,-1
  28360c:	10800003 	ldbu	r2,0(r2)
  283610:	10803fcc 	andi	r2,r2,255
  283614:	1080201c 	xori	r2,r2,128
  283618:	10bfe004 	addi	r2,r2,-128
  28361c:	10800bd8 	cmpnei	r2,r2,47
  283620:	1000031e 	bne	r2,zero,283630 <alt_find_file+0x70>
  283624:	e0bffc17 	ldw	r2,-16(fp)
  283628:	10bfffc4 	addi	r2,r2,-1
  28362c:	e0bffc15 	stw	r2,-16(fp)
  283630:	e0bffc17 	ldw	r2,-16(fp)
  283634:	1007883a 	mov	r3,r2
  283638:	e0bffe17 	ldw	r2,-8(fp)
  28363c:	1885883a 	add	r2,r3,r2
  283640:	10800003 	ldbu	r2,0(r2)
  283644:	10803fcc 	andi	r2,r2,255
  283648:	1080201c 	xori	r2,r2,128
  28364c:	10bfe004 	addi	r2,r2,-128
  283650:	10800be0 	cmpeqi	r2,r2,47
  283654:	10000a1e 	bne	r2,zero,283680 <alt_find_file+0xc0>
  283658:	e0bffc17 	ldw	r2,-16(fp)
  28365c:	1007883a 	mov	r3,r2
  283660:	e0bffe17 	ldw	r2,-8(fp)
  283664:	1885883a 	add	r2,r3,r2
  283668:	10800003 	ldbu	r2,0(r2)
  28366c:	10803fcc 	andi	r2,r2,255
  283670:	1080201c 	xori	r2,r2,128
  283674:	10bfe004 	addi	r2,r2,-128
  283678:	1004c03a 	cmpne	r2,r2,zero
  28367c:	10000a1e 	bne	r2,zero,2836a8 <alt_find_file+0xe8>
  283680:	e0bffd17 	ldw	r2,-12(fp)
  283684:	11000217 	ldw	r4,8(r2)
  283688:	e1bffc17 	ldw	r6,-16(fp)
  28368c:	e17ffe17 	ldw	r5,-8(fp)
  283690:	02838740 	call	283874 <memcmp>
  283694:	1004c03a 	cmpne	r2,r2,zero
  283698:	1000031e 	bne	r2,zero,2836a8 <alt_find_file+0xe8>
  28369c:	e0bffd17 	ldw	r2,-12(fp)
  2836a0:	e0bfff15 	stw	r2,-4(fp)
  2836a4:	00000806 	br	2836c8 <alt_find_file+0x108>
  2836a8:	e0bffd17 	ldw	r2,-12(fp)
  2836ac:	10800017 	ldw	r2,0(r2)
  2836b0:	e0bffd15 	stw	r2,-12(fp)
  2836b4:	00c00a34 	movhi	r3,40
  2836b8:	18d66404 	addi	r3,r3,22928
  2836bc:	e0bffd17 	ldw	r2,-12(fp)
  2836c0:	10ffc91e 	bne	r2,r3,2835e8 <alt_find_file+0x28>
  2836c4:	e03fff15 	stw	zero,-4(fp)
  2836c8:	e0bfff17 	ldw	r2,-4(fp)
  2836cc:	e037883a 	mov	sp,fp
  2836d0:	dfc00117 	ldw	ra,4(sp)
  2836d4:	df000017 	ldw	fp,0(sp)
  2836d8:	dec00204 	addi	sp,sp,8
  2836dc:	f800283a 	ret

002836e0 <alt_get_fd>:
  2836e0:	defffc04 	addi	sp,sp,-16
  2836e4:	df000315 	stw	fp,12(sp)
  2836e8:	df000304 	addi	fp,sp,12
  2836ec:	e13fff15 	stw	r4,-4(fp)
  2836f0:	00bffa04 	movi	r2,-24
  2836f4:	e0bffd15 	stw	r2,-12(fp)
  2836f8:	e03ffe15 	stw	zero,-8(fp)
  2836fc:	00001e06 	br	283778 <alt_get_fd+0x98>
  283700:	e0bffe17 	ldw	r2,-8(fp)
  283704:	00c00a34 	movhi	r3,40
  283708:	18d50304 	addi	r3,r3,21516
  28370c:	10800324 	muli	r2,r2,12
  283710:	10c5883a 	add	r2,r2,r3
  283714:	10800017 	ldw	r2,0(r2)
  283718:	1004c03a 	cmpne	r2,r2,zero
  28371c:	1000131e 	bne	r2,zero,28376c <alt_get_fd+0x8c>
  283720:	e0bffe17 	ldw	r2,-8(fp)
  283724:	00c00a34 	movhi	r3,40
  283728:	18d50304 	addi	r3,r3,21516
  28372c:	10800324 	muli	r2,r2,12
  283730:	10c7883a 	add	r3,r2,r3
  283734:	e0bfff17 	ldw	r2,-4(fp)
  283738:	18800015 	stw	r2,0(r3)
  28373c:	00800a34 	movhi	r2,40
  283740:	10966804 	addi	r2,r2,22944
  283744:	10c00017 	ldw	r3,0(r2)
  283748:	e0bffe17 	ldw	r2,-8(fp)
  28374c:	1880040e 	bge	r3,r2,283760 <alt_get_fd+0x80>
  283750:	00c00a34 	movhi	r3,40
  283754:	18d66804 	addi	r3,r3,22944
  283758:	e0bffe17 	ldw	r2,-8(fp)
  28375c:	18800015 	stw	r2,0(r3)
  283760:	e0bffe17 	ldw	r2,-8(fp)
  283764:	e0bffd15 	stw	r2,-12(fp)
  283768:	00000606 	br	283784 <alt_get_fd+0xa4>
  28376c:	e0bffe17 	ldw	r2,-8(fp)
  283770:	10800044 	addi	r2,r2,1
  283774:	e0bffe15 	stw	r2,-8(fp)
  283778:	e0bffe17 	ldw	r2,-8(fp)
  28377c:	10800810 	cmplti	r2,r2,32
  283780:	103fdf1e 	bne	r2,zero,283700 <alt_get_fd+0x20>
  283784:	e0bffd17 	ldw	r2,-12(fp)
  283788:	e037883a 	mov	sp,fp
  28378c:	df000017 	ldw	fp,0(sp)
  283790:	dec00104 	addi	sp,sp,4
  283794:	f800283a 	ret

00283798 <alt_icache_flush>:
  283798:	defffb04 	addi	sp,sp,-20
  28379c:	df000415 	stw	fp,16(sp)
  2837a0:	df000404 	addi	fp,sp,16
  2837a4:	e13ffe15 	stw	r4,-8(fp)
  2837a8:	e17fff15 	stw	r5,-4(fp)
  2837ac:	e0bfff17 	ldw	r2,-4(fp)
  2837b0:	10840070 	cmpltui	r2,r2,4097
  2837b4:	1000021e 	bne	r2,zero,2837c0 <alt_icache_flush+0x28>
  2837b8:	00840004 	movi	r2,4096
  2837bc:	e0bfff15 	stw	r2,-4(fp)
  2837c0:	e0fffe17 	ldw	r3,-8(fp)
  2837c4:	e0bfff17 	ldw	r2,-4(fp)
  2837c8:	1885883a 	add	r2,r3,r2
  2837cc:	e0bffc15 	stw	r2,-16(fp)
  2837d0:	e0bffe17 	ldw	r2,-8(fp)
  2837d4:	e0bffd15 	stw	r2,-12(fp)
  2837d8:	00000506 	br	2837f0 <alt_icache_flush+0x58>
  2837dc:	e0bffd17 	ldw	r2,-12(fp)
  2837e0:	1000603a 	flushi	r2
  2837e4:	e0bffd17 	ldw	r2,-12(fp)
  2837e8:	10800804 	addi	r2,r2,32
  2837ec:	e0bffd15 	stw	r2,-12(fp)
  2837f0:	e0fffd17 	ldw	r3,-12(fp)
  2837f4:	e0bffc17 	ldw	r2,-16(fp)
  2837f8:	18bff836 	bltu	r3,r2,2837dc <alt_icache_flush+0x44>
  2837fc:	e0bffe17 	ldw	r2,-8(fp)
  283800:	108007cc 	andi	r2,r2,31
  283804:	1005003a 	cmpeq	r2,r2,zero
  283808:	1000021e 	bne	r2,zero,283814 <alt_icache_flush+0x7c>
  28380c:	e0bffd17 	ldw	r2,-12(fp)
  283810:	1000603a 	flushi	r2
  283814:	0000203a 	flushp
  283818:	e037883a 	mov	sp,fp
  28381c:	df000017 	ldw	fp,0(sp)
  283820:	dec00104 	addi	sp,sp,4
  283824:	f800283a 	ret

00283828 <atexit>:
  283828:	200b883a 	mov	r5,r4
  28382c:	000d883a 	mov	r6,zero
  283830:	0009883a 	mov	r4,zero
  283834:	000f883a 	mov	r7,zero
  283838:	0283a941 	jmpi	283a94 <__register_exitproc>

0028383c <exit>:
  28383c:	defffe04 	addi	sp,sp,-8
  283840:	000b883a 	mov	r5,zero
  283844:	dc000015 	stw	r16,0(sp)
  283848:	dfc00115 	stw	ra,4(sp)
  28384c:	2021883a 	mov	r16,r4
  283850:	0283bcc0 	call	283bcc <__call_exitprocs>
  283854:	00800a34 	movhi	r2,40
  283858:	10966f04 	addi	r2,r2,22972
  28385c:	11000017 	ldw	r4,0(r2)
  283860:	20800f17 	ldw	r2,60(r4)
  283864:	10000126 	beq	r2,zero,28386c <exit+0x30>
  283868:	103ee83a 	callr	r2
  28386c:	8009883a 	mov	r4,r16
  283870:	0283f080 	call	283f08 <_exit>

00283874 <memcmp>:
  283874:	00c000c4 	movi	r3,3
  283878:	1980032e 	bgeu	r3,r6,283888 <memcmp+0x14>
  28387c:	2144b03a 	or	r2,r4,r5
  283880:	10c4703a 	and	r2,r2,r3
  283884:	10000f26 	beq	r2,zero,2838c4 <memcmp+0x50>
  283888:	31ffffc4 	addi	r7,r6,-1
  28388c:	3000061e 	bne	r6,zero,2838a8 <memcmp+0x34>
  283890:	00000a06 	br	2838bc <memcmp+0x48>
  283894:	39ffffc4 	addi	r7,r7,-1
  283898:	00bfffc4 	movi	r2,-1
  28389c:	21000044 	addi	r4,r4,1
  2838a0:	29400044 	addi	r5,r5,1
  2838a4:	38800526 	beq	r7,r2,2838bc <memcmp+0x48>
  2838a8:	20c00003 	ldbu	r3,0(r4)
  2838ac:	28800003 	ldbu	r2,0(r5)
  2838b0:	18bff826 	beq	r3,r2,283894 <memcmp+0x20>
  2838b4:	1885c83a 	sub	r2,r3,r2
  2838b8:	f800283a 	ret
  2838bc:	0005883a 	mov	r2,zero
  2838c0:	f800283a 	ret
  2838c4:	180f883a 	mov	r7,r3
  2838c8:	20c00017 	ldw	r3,0(r4)
  2838cc:	28800017 	ldw	r2,0(r5)
  2838d0:	18bfed1e 	bne	r3,r2,283888 <memcmp+0x14>
  2838d4:	31bfff04 	addi	r6,r6,-4
  2838d8:	21000104 	addi	r4,r4,4
  2838dc:	29400104 	addi	r5,r5,4
  2838e0:	39bff936 	bltu	r7,r6,2838c8 <memcmp+0x54>
  2838e4:	003fe806 	br	283888 <memcmp+0x14>

002838e8 <memcpy>:
  2838e8:	01c003c4 	movi	r7,15
  2838ec:	2007883a 	mov	r3,r4
  2838f0:	3980032e 	bgeu	r7,r6,283900 <memcpy+0x18>
  2838f4:	2904b03a 	or	r2,r5,r4
  2838f8:	108000cc 	andi	r2,r2,3
  2838fc:	10000926 	beq	r2,zero,283924 <memcpy+0x3c>
  283900:	30000626 	beq	r6,zero,28391c <memcpy+0x34>
  283904:	30cd883a 	add	r6,r6,r3
  283908:	28800003 	ldbu	r2,0(r5)
  28390c:	29400044 	addi	r5,r5,1
  283910:	18800005 	stb	r2,0(r3)
  283914:	18c00044 	addi	r3,r3,1
  283918:	30fffb1e 	bne	r6,r3,283908 <memcpy+0x20>
  28391c:	2005883a 	mov	r2,r4
  283920:	f800283a 	ret
  283924:	3811883a 	mov	r8,r7
  283928:	200f883a 	mov	r7,r4
  28392c:	28c00017 	ldw	r3,0(r5)
  283930:	31bffc04 	addi	r6,r6,-16
  283934:	38c00015 	stw	r3,0(r7)
  283938:	28800117 	ldw	r2,4(r5)
  28393c:	38800115 	stw	r2,4(r7)
  283940:	28c00217 	ldw	r3,8(r5)
  283944:	38c00215 	stw	r3,8(r7)
  283948:	28800317 	ldw	r2,12(r5)
  28394c:	29400404 	addi	r5,r5,16
  283950:	38800315 	stw	r2,12(r7)
  283954:	39c00404 	addi	r7,r7,16
  283958:	41bff436 	bltu	r8,r6,28392c <memcpy+0x44>
  28395c:	008000c4 	movi	r2,3
  283960:	1180072e 	bgeu	r2,r6,283980 <memcpy+0x98>
  283964:	1007883a 	mov	r3,r2
  283968:	28800017 	ldw	r2,0(r5)
  28396c:	31bfff04 	addi	r6,r6,-4
  283970:	29400104 	addi	r5,r5,4
  283974:	38800015 	stw	r2,0(r7)
  283978:	39c00104 	addi	r7,r7,4
  28397c:	19bffa36 	bltu	r3,r6,283968 <memcpy+0x80>
  283980:	3807883a 	mov	r3,r7
  283984:	003fde06 	br	283900 <memcpy+0x18>

00283988 <memset>:
  283988:	008000c4 	movi	r2,3
  28398c:	29403fcc 	andi	r5,r5,255
  283990:	2007883a 	mov	r3,r4
  283994:	1180022e 	bgeu	r2,r6,2839a0 <memset+0x18>
  283998:	2084703a 	and	r2,r4,r2
  28399c:	10000826 	beq	r2,zero,2839c0 <memset+0x38>
  2839a0:	30000526 	beq	r6,zero,2839b8 <memset+0x30>
  2839a4:	2805883a 	mov	r2,r5
  2839a8:	30cd883a 	add	r6,r6,r3
  2839ac:	18800005 	stb	r2,0(r3)
  2839b0:	18c00044 	addi	r3,r3,1
  2839b4:	19bffd1e 	bne	r3,r6,2839ac <memset+0x24>
  2839b8:	2005883a 	mov	r2,r4
  2839bc:	f800283a 	ret
  2839c0:	2804923a 	slli	r2,r5,8
  2839c4:	020003c4 	movi	r8,15
  2839c8:	200f883a 	mov	r7,r4
  2839cc:	2884b03a 	or	r2,r5,r2
  2839d0:	1006943a 	slli	r3,r2,16
  2839d4:	10c6b03a 	or	r3,r2,r3
  2839d8:	41800a2e 	bgeu	r8,r6,283a04 <memset+0x7c>
  2839dc:	4005883a 	mov	r2,r8
  2839e0:	31bffc04 	addi	r6,r6,-16
  2839e4:	38c00015 	stw	r3,0(r7)
  2839e8:	38c00115 	stw	r3,4(r7)
  2839ec:	38c00215 	stw	r3,8(r7)
  2839f0:	38c00315 	stw	r3,12(r7)
  2839f4:	39c00404 	addi	r7,r7,16
  2839f8:	11bff936 	bltu	r2,r6,2839e0 <memset+0x58>
  2839fc:	008000c4 	movi	r2,3
  283a00:	1180052e 	bgeu	r2,r6,283a18 <memset+0x90>
  283a04:	31bfff04 	addi	r6,r6,-4
  283a08:	008000c4 	movi	r2,3
  283a0c:	38c00015 	stw	r3,0(r7)
  283a10:	39c00104 	addi	r7,r7,4
  283a14:	11bffb36 	bltu	r2,r6,283a04 <memset+0x7c>
  283a18:	3807883a 	mov	r3,r7
  283a1c:	003fe006 	br	2839a0 <memset+0x18>

00283a20 <strlen>:
  283a20:	208000cc 	andi	r2,r4,3
  283a24:	2011883a 	mov	r8,r4
  283a28:	1000161e 	bne	r2,zero,283a84 <strlen+0x64>
  283a2c:	20c00017 	ldw	r3,0(r4)
  283a30:	017fbff4 	movhi	r5,65279
  283a34:	297fbfc4 	addi	r5,r5,-257
  283a38:	01e02074 	movhi	r7,32897
  283a3c:	39e02004 	addi	r7,r7,-32640
  283a40:	1945883a 	add	r2,r3,r5
  283a44:	11c4703a 	and	r2,r2,r7
  283a48:	00c6303a 	nor	r3,zero,r3
  283a4c:	1886703a 	and	r3,r3,r2
  283a50:	18000c1e 	bne	r3,zero,283a84 <strlen+0x64>
  283a54:	280d883a 	mov	r6,r5
  283a58:	380b883a 	mov	r5,r7
  283a5c:	21000104 	addi	r4,r4,4
  283a60:	20800017 	ldw	r2,0(r4)
  283a64:	1187883a 	add	r3,r2,r6
  283a68:	1946703a 	and	r3,r3,r5
  283a6c:	0084303a 	nor	r2,zero,r2
  283a70:	10c4703a 	and	r2,r2,r3
  283a74:	103ff926 	beq	r2,zero,283a5c <strlen+0x3c>
  283a78:	20800007 	ldb	r2,0(r4)
  283a7c:	10000326 	beq	r2,zero,283a8c <strlen+0x6c>
  283a80:	21000044 	addi	r4,r4,1
  283a84:	20800007 	ldb	r2,0(r4)
  283a88:	103ffd1e 	bne	r2,zero,283a80 <strlen+0x60>
  283a8c:	2205c83a 	sub	r2,r4,r8
  283a90:	f800283a 	ret

00283a94 <__register_exitproc>:
  283a94:	defffa04 	addi	sp,sp,-24
  283a98:	00800a34 	movhi	r2,40
  283a9c:	10966f04 	addi	r2,r2,22972
  283aa0:	dc000015 	stw	r16,0(sp)
  283aa4:	14000017 	ldw	r16,0(r2)
  283aa8:	dd000415 	stw	r20,16(sp)
  283aac:	2829883a 	mov	r20,r5
  283ab0:	81405217 	ldw	r5,328(r16)
  283ab4:	dcc00315 	stw	r19,12(sp)
  283ab8:	dc800215 	stw	r18,8(sp)
  283abc:	dc400115 	stw	r17,4(sp)
  283ac0:	dfc00515 	stw	ra,20(sp)
  283ac4:	2023883a 	mov	r17,r4
  283ac8:	3027883a 	mov	r19,r6
  283acc:	3825883a 	mov	r18,r7
  283ad0:	28002526 	beq	r5,zero,283b68 <__register_exitproc+0xd4>
  283ad4:	29000117 	ldw	r4,4(r5)
  283ad8:	008007c4 	movi	r2,31
  283adc:	11002716 	blt	r2,r4,283b7c <__register_exitproc+0xe8>
  283ae0:	8800101e 	bne	r17,zero,283b24 <__register_exitproc+0x90>
  283ae4:	2105883a 	add	r2,r4,r4
  283ae8:	1085883a 	add	r2,r2,r2
  283aec:	20c00044 	addi	r3,r4,1
  283af0:	1145883a 	add	r2,r2,r5
  283af4:	0009883a 	mov	r4,zero
  283af8:	15000215 	stw	r20,8(r2)
  283afc:	28c00115 	stw	r3,4(r5)
  283b00:	2005883a 	mov	r2,r4
  283b04:	dfc00517 	ldw	ra,20(sp)
  283b08:	dd000417 	ldw	r20,16(sp)
  283b0c:	dcc00317 	ldw	r19,12(sp)
  283b10:	dc800217 	ldw	r18,8(sp)
  283b14:	dc400117 	ldw	r17,4(sp)
  283b18:	dc000017 	ldw	r16,0(sp)
  283b1c:	dec00604 	addi	sp,sp,24
  283b20:	f800283a 	ret
  283b24:	29802204 	addi	r6,r5,136
  283b28:	00800044 	movi	r2,1
  283b2c:	110e983a 	sll	r7,r2,r4
  283b30:	30c04017 	ldw	r3,256(r6)
  283b34:	2105883a 	add	r2,r4,r4
  283b38:	1085883a 	add	r2,r2,r2
  283b3c:	1185883a 	add	r2,r2,r6
  283b40:	19c6b03a 	or	r3,r3,r7
  283b44:	14802015 	stw	r18,128(r2)
  283b48:	14c00015 	stw	r19,0(r2)
  283b4c:	00800084 	movi	r2,2
  283b50:	30c04015 	stw	r3,256(r6)
  283b54:	88bfe31e 	bne	r17,r2,283ae4 <__register_exitproc+0x50>
  283b58:	30804117 	ldw	r2,260(r6)
  283b5c:	11c4b03a 	or	r2,r2,r7
  283b60:	30804115 	stw	r2,260(r6)
  283b64:	003fdf06 	br	283ae4 <__register_exitproc+0x50>
  283b68:	00800a34 	movhi	r2,40
  283b6c:	109ca304 	addi	r2,r2,29324
  283b70:	100b883a 	mov	r5,r2
  283b74:	80805215 	stw	r2,328(r16)
  283b78:	003fd606 	br	283ad4 <__register_exitproc+0x40>
  283b7c:	00800034 	movhi	r2,0
  283b80:	10800004 	addi	r2,r2,0
  283b84:	1000021e 	bne	r2,zero,283b90 <__register_exitproc+0xfc>
  283b88:	013fffc4 	movi	r4,-1
  283b8c:	003fdc06 	br	283b00 <__register_exitproc+0x6c>
  283b90:	01006404 	movi	r4,400
  283b94:	103ee83a 	callr	r2
  283b98:	1007883a 	mov	r3,r2
  283b9c:	103ffa26 	beq	r2,zero,283b88 <__register_exitproc+0xf4>
  283ba0:	80805217 	ldw	r2,328(r16)
  283ba4:	180b883a 	mov	r5,r3
  283ba8:	18000115 	stw	zero,4(r3)
  283bac:	18800015 	stw	r2,0(r3)
  283bb0:	80c05215 	stw	r3,328(r16)
  283bb4:	18006215 	stw	zero,392(r3)
  283bb8:	18006315 	stw	zero,396(r3)
  283bbc:	0009883a 	mov	r4,zero
  283bc0:	883fc826 	beq	r17,zero,283ae4 <__register_exitproc+0x50>
  283bc4:	003fd706 	br	283b24 <__register_exitproc+0x90>

00283bc8 <register_fini>:
  283bc8:	f800283a 	ret

00283bcc <__call_exitprocs>:
  283bcc:	00800a34 	movhi	r2,40
  283bd0:	10966f04 	addi	r2,r2,22972
  283bd4:	10800017 	ldw	r2,0(r2)
  283bd8:	defff304 	addi	sp,sp,-52
  283bdc:	df000b15 	stw	fp,44(sp)
  283be0:	d8800115 	stw	r2,4(sp)
  283be4:	00800034 	movhi	r2,0
  283be8:	10800004 	addi	r2,r2,0
  283bec:	1005003a 	cmpeq	r2,r2,zero
  283bf0:	d8800215 	stw	r2,8(sp)
  283bf4:	d8800117 	ldw	r2,4(sp)
  283bf8:	dd400815 	stw	r21,32(sp)
  283bfc:	dd000715 	stw	r20,28(sp)
  283c00:	10805204 	addi	r2,r2,328
  283c04:	dfc00c15 	stw	ra,48(sp)
  283c08:	ddc00a15 	stw	r23,40(sp)
  283c0c:	dd800915 	stw	r22,36(sp)
  283c10:	dcc00615 	stw	r19,24(sp)
  283c14:	dc800515 	stw	r18,20(sp)
  283c18:	dc400415 	stw	r17,16(sp)
  283c1c:	dc000315 	stw	r16,12(sp)
  283c20:	282b883a 	mov	r21,r5
  283c24:	2039883a 	mov	fp,r4
  283c28:	d8800015 	stw	r2,0(sp)
  283c2c:	2829003a 	cmpeq	r20,r5,zero
  283c30:	d8800117 	ldw	r2,4(sp)
  283c34:	14405217 	ldw	r17,328(r2)
  283c38:	88001026 	beq	r17,zero,283c7c <__call_exitprocs+0xb0>
  283c3c:	ddc00017 	ldw	r23,0(sp)
  283c40:	88800117 	ldw	r2,4(r17)
  283c44:	8c802204 	addi	r18,r17,136
  283c48:	143fffc4 	addi	r16,r2,-1
  283c4c:	80000916 	blt	r16,zero,283c74 <__call_exitprocs+0xa8>
  283c50:	05bfffc4 	movi	r22,-1
  283c54:	a000151e 	bne	r20,zero,283cac <__call_exitprocs+0xe0>
  283c58:	8409883a 	add	r4,r16,r16
  283c5c:	2105883a 	add	r2,r4,r4
  283c60:	1485883a 	add	r2,r2,r18
  283c64:	10c02017 	ldw	r3,128(r2)
  283c68:	a8c01126 	beq	r21,r3,283cb0 <__call_exitprocs+0xe4>
  283c6c:	843fffc4 	addi	r16,r16,-1
  283c70:	85bff81e 	bne	r16,r22,283c54 <__call_exitprocs+0x88>
  283c74:	d8800217 	ldw	r2,8(sp)
  283c78:	10003126 	beq	r2,zero,283d40 <__call_exitprocs+0x174>
  283c7c:	dfc00c17 	ldw	ra,48(sp)
  283c80:	df000b17 	ldw	fp,44(sp)
  283c84:	ddc00a17 	ldw	r23,40(sp)
  283c88:	dd800917 	ldw	r22,36(sp)
  283c8c:	dd400817 	ldw	r21,32(sp)
  283c90:	dd000717 	ldw	r20,28(sp)
  283c94:	dcc00617 	ldw	r19,24(sp)
  283c98:	dc800517 	ldw	r18,20(sp)
  283c9c:	dc400417 	ldw	r17,16(sp)
  283ca0:	dc000317 	ldw	r16,12(sp)
  283ca4:	dec00d04 	addi	sp,sp,52
  283ca8:	f800283a 	ret
  283cac:	8409883a 	add	r4,r16,r16
  283cb0:	88c00117 	ldw	r3,4(r17)
  283cb4:	2105883a 	add	r2,r4,r4
  283cb8:	1445883a 	add	r2,r2,r17
  283cbc:	18ffffc4 	addi	r3,r3,-1
  283cc0:	11800217 	ldw	r6,8(r2)
  283cc4:	1c001526 	beq	r3,r16,283d1c <__call_exitprocs+0x150>
  283cc8:	10000215 	stw	zero,8(r2)
  283ccc:	303fe726 	beq	r6,zero,283c6c <__call_exitprocs+0xa0>
  283cd0:	00c00044 	movi	r3,1
  283cd4:	1c06983a 	sll	r3,r3,r16
  283cd8:	90804017 	ldw	r2,256(r18)
  283cdc:	8cc00117 	ldw	r19,4(r17)
  283ce0:	1884703a 	and	r2,r3,r2
  283ce4:	10001426 	beq	r2,zero,283d38 <__call_exitprocs+0x16c>
  283ce8:	90804117 	ldw	r2,260(r18)
  283cec:	1884703a 	and	r2,r3,r2
  283cf0:	10000c1e 	bne	r2,zero,283d24 <__call_exitprocs+0x158>
  283cf4:	2105883a 	add	r2,r4,r4
  283cf8:	1485883a 	add	r2,r2,r18
  283cfc:	11400017 	ldw	r5,0(r2)
  283d00:	e009883a 	mov	r4,fp
  283d04:	303ee83a 	callr	r6
  283d08:	88800117 	ldw	r2,4(r17)
  283d0c:	98bfc81e 	bne	r19,r2,283c30 <__call_exitprocs+0x64>
  283d10:	b8800017 	ldw	r2,0(r23)
  283d14:	147fd526 	beq	r2,r17,283c6c <__call_exitprocs+0xa0>
  283d18:	003fc506 	br	283c30 <__call_exitprocs+0x64>
  283d1c:	8c000115 	stw	r16,4(r17)
  283d20:	003fea06 	br	283ccc <__call_exitprocs+0x100>
  283d24:	2105883a 	add	r2,r4,r4
  283d28:	1485883a 	add	r2,r2,r18
  283d2c:	11000017 	ldw	r4,0(r2)
  283d30:	303ee83a 	callr	r6
  283d34:	003ff406 	br	283d08 <__call_exitprocs+0x13c>
  283d38:	303ee83a 	callr	r6
  283d3c:	003ff206 	br	283d08 <__call_exitprocs+0x13c>
  283d40:	88800117 	ldw	r2,4(r17)
  283d44:	1000081e 	bne	r2,zero,283d68 <__call_exitprocs+0x19c>
  283d48:	89000017 	ldw	r4,0(r17)
  283d4c:	20000726 	beq	r4,zero,283d6c <__call_exitprocs+0x1a0>
  283d50:	b9000015 	stw	r4,0(r23)
  283d54:	8809883a 	mov	r4,r17
  283d58:	00000000 	call	0 <__reset-0x280000>
  283d5c:	bc400017 	ldw	r17,0(r23)
  283d60:	883fb71e 	bne	r17,zero,283c40 <__call_exitprocs+0x74>
  283d64:	003fc506 	br	283c7c <__call_exitprocs+0xb0>
  283d68:	89000017 	ldw	r4,0(r17)
  283d6c:	882f883a 	mov	r23,r17
  283d70:	2023883a 	mov	r17,r4
  283d74:	883fb21e 	bne	r17,zero,283c40 <__call_exitprocs+0x74>
  283d78:	003fc006 	br	283c7c <__call_exitprocs+0xb0>

00283d7c <udivmodsi4>:
  283d7c:	29001b2e 	bgeu	r5,r4,283dec <udivmodsi4+0x70>
  283d80:	28001a16 	blt	r5,zero,283dec <udivmodsi4+0x70>
  283d84:	00800044 	movi	r2,1
  283d88:	0007883a 	mov	r3,zero
  283d8c:	01c007c4 	movi	r7,31
  283d90:	00000306 	br	283da0 <udivmodsi4+0x24>
  283d94:	19c01326 	beq	r3,r7,283de4 <udivmodsi4+0x68>
  283d98:	18c00044 	addi	r3,r3,1
  283d9c:	28000416 	blt	r5,zero,283db0 <udivmodsi4+0x34>
  283da0:	294b883a 	add	r5,r5,r5
  283da4:	1085883a 	add	r2,r2,r2
  283da8:	293ffa36 	bltu	r5,r4,283d94 <udivmodsi4+0x18>
  283dac:	10000d26 	beq	r2,zero,283de4 <udivmodsi4+0x68>
  283db0:	0007883a 	mov	r3,zero
  283db4:	21400236 	bltu	r4,r5,283dc0 <udivmodsi4+0x44>
  283db8:	2149c83a 	sub	r4,r4,r5
  283dbc:	1886b03a 	or	r3,r3,r2
  283dc0:	1004d07a 	srli	r2,r2,1
  283dc4:	280ad07a 	srli	r5,r5,1
  283dc8:	103ffa1e 	bne	r2,zero,283db4 <udivmodsi4+0x38>
  283dcc:	30000226 	beq	r6,zero,283dd8 <udivmodsi4+0x5c>
  283dd0:	2005883a 	mov	r2,r4
  283dd4:	f800283a 	ret
  283dd8:	1809883a 	mov	r4,r3
  283ddc:	2005883a 	mov	r2,r4
  283de0:	f800283a 	ret
  283de4:	0007883a 	mov	r3,zero
  283de8:	003ff806 	br	283dcc <udivmodsi4+0x50>
  283dec:	00800044 	movi	r2,1
  283df0:	0007883a 	mov	r3,zero
  283df4:	003fef06 	br	283db4 <udivmodsi4+0x38>

00283df8 <__divsi3>:
  283df8:	defffe04 	addi	sp,sp,-8
  283dfc:	dc000015 	stw	r16,0(sp)
  283e00:	dfc00115 	stw	ra,4(sp)
  283e04:	0021883a 	mov	r16,zero
  283e08:	20000c16 	blt	r4,zero,283e3c <__divsi3+0x44>
  283e0c:	000d883a 	mov	r6,zero
  283e10:	28000e16 	blt	r5,zero,283e4c <__divsi3+0x54>
  283e14:	0283d7c0 	call	283d7c <udivmodsi4>
  283e18:	1007883a 	mov	r3,r2
  283e1c:	8005003a 	cmpeq	r2,r16,zero
  283e20:	1000011e 	bne	r2,zero,283e28 <__divsi3+0x30>
  283e24:	00c7c83a 	sub	r3,zero,r3
  283e28:	1805883a 	mov	r2,r3
  283e2c:	dfc00117 	ldw	ra,4(sp)
  283e30:	dc000017 	ldw	r16,0(sp)
  283e34:	dec00204 	addi	sp,sp,8
  283e38:	f800283a 	ret
  283e3c:	0109c83a 	sub	r4,zero,r4
  283e40:	04000044 	movi	r16,1
  283e44:	000d883a 	mov	r6,zero
  283e48:	283ff20e 	bge	r5,zero,283e14 <__divsi3+0x1c>
  283e4c:	014bc83a 	sub	r5,zero,r5
  283e50:	8021003a 	cmpeq	r16,r16,zero
  283e54:	003fef06 	br	283e14 <__divsi3+0x1c>

00283e58 <__modsi3>:
  283e58:	deffff04 	addi	sp,sp,-4
  283e5c:	dfc00015 	stw	ra,0(sp)
  283e60:	01800044 	movi	r6,1
  283e64:	2807883a 	mov	r3,r5
  283e68:	20000416 	blt	r4,zero,283e7c <__modsi3+0x24>
  283e6c:	28000c16 	blt	r5,zero,283ea0 <__modsi3+0x48>
  283e70:	dfc00017 	ldw	ra,0(sp)
  283e74:	dec00104 	addi	sp,sp,4
  283e78:	0283d7c1 	jmpi	283d7c <udivmodsi4>
  283e7c:	0109c83a 	sub	r4,zero,r4
  283e80:	28000b16 	blt	r5,zero,283eb0 <__modsi3+0x58>
  283e84:	180b883a 	mov	r5,r3
  283e88:	01800044 	movi	r6,1
  283e8c:	0283d7c0 	call	283d7c <udivmodsi4>
  283e90:	0085c83a 	sub	r2,zero,r2
  283e94:	dfc00017 	ldw	ra,0(sp)
  283e98:	dec00104 	addi	sp,sp,4
  283e9c:	f800283a 	ret
  283ea0:	014bc83a 	sub	r5,zero,r5
  283ea4:	dfc00017 	ldw	ra,0(sp)
  283ea8:	dec00104 	addi	sp,sp,4
  283eac:	0283d7c1 	jmpi	283d7c <udivmodsi4>
  283eb0:	0147c83a 	sub	r3,zero,r5
  283eb4:	003ff306 	br	283e84 <__modsi3+0x2c>

00283eb8 <__udivsi3>:
  283eb8:	000d883a 	mov	r6,zero
  283ebc:	0283d7c1 	jmpi	283d7c <udivmodsi4>

00283ec0 <__umodsi3>:
  283ec0:	01800044 	movi	r6,1
  283ec4:	0283d7c1 	jmpi	283d7c <udivmodsi4>

00283ec8 <alt_sim_halt>:
  283ec8:	defffd04 	addi	sp,sp,-12
  283ecc:	df000215 	stw	fp,8(sp)
  283ed0:	df000204 	addi	fp,sp,8
  283ed4:	e13fff15 	stw	r4,-4(fp)
  283ed8:	e0bfff17 	ldw	r2,-4(fp)
  283edc:	e0bffe15 	stw	r2,-8(fp)
  283ee0:	e0bffe17 	ldw	r2,-8(fp)
  283ee4:	1005003a 	cmpeq	r2,r2,zero
  283ee8:	1000021e 	bne	r2,zero,283ef4 <alt_sim_halt+0x2c>
  283eec:	002af070 	cmpltui	zero,zero,43969
  283ef0:	00000106 	br	283ef8 <alt_sim_halt+0x30>
  283ef4:	002af0b0 	cmpltui	zero,zero,43970
  283ef8:	e037883a 	mov	sp,fp
  283efc:	df000017 	ldw	fp,0(sp)
  283f00:	dec00104 	addi	sp,sp,4
  283f04:	f800283a 	ret

00283f08 <_exit>:
  283f08:	defffd04 	addi	sp,sp,-12
  283f0c:	dfc00215 	stw	ra,8(sp)
  283f10:	df000115 	stw	fp,4(sp)
  283f14:	df000104 	addi	fp,sp,4
  283f18:	e13fff15 	stw	r4,-4(fp)
  283f1c:	e13fff17 	ldw	r4,-4(fp)
  283f20:	0283ec80 	call	283ec8 <alt_sim_halt>
  283f24:	003fff06 	br	283f24 <_exit+0x1c>
  283f28:	00283bc8 	cmpgei	zero,zero,-24337
